---
triple:          'arm64-apple-darwin'
binary-path:     '/Users/yvan/Desktop/SELF/QUANTFIN/cpp_FE/code/chap1/new_features'
relocations:
  - { offset: 0x21538, size: 0x8, addend: 0x0, symName: __Z7toupperi, symObjAddr: 0x0, symBinAddr: 0x1000007A0, symSize: 0x1C }
  - { offset: 0x2205A, size: 0x8, addend: 0x0, symName: __ZStL8__ioinit, symObjAddr: 0x115A71, symBinAddr: 0x100030000, symSize: 0x0 }
  - { offset: 0x22303, size: 0x8, addend: 0x0, symName: __ZNSt8__detail31__from_chars_alnum_to_val_tableILb0EE5valueE, symObjAddr: 0x1C6F8, symBinAddr: 0x10001F840, symSize: 0x0 }
  - { offset: 0x23491, size: 0x8, addend: 0x0, symName: __GLOBAL__sub_I_new_features.cpp, symObjAddr: 0x1E364, symBinAddr: 0x100018AD8, symSize: 0x14 }
  - { offset: 0x234AD, size: 0x8, addend: 0x0, symName: __ZNSt8__format14_Fixedbuf_sinkIcE11_M_overflowEv, symObjAddr: 0x182D0, symBinAddr: 0x100018A70, symSize: 0x2C }
  - { offset: 0x2350A, size: 0x8, addend: 0x0, symName: __ZNSt5arrayIcLm4EEixEm, symObjAddr: 0x18264, symBinAddr: 0x100018A04, symSize: 0x6C }
  - { offset: 0x23580, size: 0x8, addend: 0x0, symName: __ZSt9bit_widthITkSt18__unsigned_integerjEiT_, symObjAddr: 0x18248, symBinAddr: 0x1000189E8, symSize: 0x1C }
  - { offset: 0x235B3, size: 0x8, addend: 0x0, symName: __ZSt13__countl_zeroIoEiT_, symObjAddr: 0x181EC, symBinAddr: 0x10001898C, symSize: 0x5C }
  - { offset: 0x2361D, size: 0x8, addend: 0x0, symName: __ZNKSt5arrayIcLm4EEixEm, symObjAddr: 0x18180, symBinAddr: 0x100018920, symSize: 0x6C }
  - { offset: 0x23697, size: 0x8, addend: 0x0, symName: __ZNSt9__unicode13_Utf_iteratorIDicPKDiS2_NS_5_ReplEE9_M_updateEDih, symObjAddr: 0x17E88, symBinAddr: 0x100018628, symSize: 0x2F8 }
  - { offset: 0x236FB, size: 0x8, addend: 0x0, symName: __ZNSt9__unicode13_Utf_iteratorIDicPKDiS2_NS_5_ReplEE8_S_errorEv, symObjAddr: 0x17E18, symBinAddr: 0x1000185B8, symSize: 0x70 }
  - { offset: 0x2376D, size: 0x8, addend: 0x0, symName: __ZNSt9__unicode13_Utf_iteratorIDicPKDiS2_NS_5_ReplEE6_GuardIS2_ED1Ev, symObjAddr: 0x17DD4, symBinAddr: 0x100018574, symSize: 0x44 }
  - { offset: 0x237B7, size: 0x8, addend: 0x0, symName: __ZNKSt9__unicode9__v16_0_022_Grapheme_cluster_viewISt17basic_string_viewIcSt11char_traitsIcEEE9_Iterator11_M_is_breakENS0_13_Gcb_propertyES8_NS_13_Utf_iteratorIcDiPKcSB_NS_5_ReplEEE, symObjAddr: 0x17A20, symBinAddr: 0x1000181C0, symSize: 0x3B4 }
  - { offset: 0x2385D, size: 0x8, addend: 0x0, symName: __ZNSt9__unicodeeqENS_13_Utf_iteratorIcDiPKcS2_NS_5_ReplEEES2_, symObjAddr: 0x179E4, symBinAddr: 0x100018184, symSize: 0x3C }
  - { offset: 0x238C2, size: 0x8, addend: 0x0, symName: __ZNSt9__unicode9__v16_0_022_Grapheme_cluster_viewISt17basic_string_viewIcSt11char_traitsIcEEE9_IteratorC1ENS_13_Utf_iteratorIcDiPKcSA_NS_5_ReplEEE, symObjAddr: 0x1791C, symBinAddr: 0x1000180BC, symSize: 0xC8 }
  - { offset: 0x238ED, size: 0x8, addend: 0x0, symName: __ZNSt8__detail18__to_chars_10_implIoEEvPcjT_, symObjAddr: 0x176E8, symBinAddr: 0x100017E88, symSize: 0x234 }
  - { offset: 0x239B7, size: 0x8, addend: 0x0, symName: __ZSt11__bit_widthIoEiT_, symObjAddr: 0x176B8, symBinAddr: 0x100017E58, symSize: 0x30 }
  - { offset: 0x23A5E, size: 0x8, addend: 0x0, symName: __ZNSt9__unicode9__v16_0_031_Grapheme_cluster_iterator_baseC2Ev, symObjAddr: 0x1768C, symBinAddr: 0x100017E2C, symSize: 0x2C }
  - { offset: 0x23ACA, size: 0x8, addend: 0x0, symName: __ZNSt17basic_string_viewIcSt11char_traitsIcEEC1IPcS4_EET_T0_, symObjAddr: 0x17644, symBinAddr: 0x100017DE4, symSize: 0x48 }
  - { offset: 0x23B7B, size: 0x8, addend: 0x0, symName: __ZNSt9__unicode13_Utf_iteratorIDicPKDiS2_NS_5_ReplEEppEv, symObjAddr: 0x17518, symBinAddr: 0x100017CB8, symSize: 0x12C }
  - { offset: 0x23BFD, size: 0x8, addend: 0x0, symName: __ZNKSt9__unicode13_Utf_iteratorIDicPKDiS2_NS_5_ReplEEdeEv, symObjAddr: 0x174E4, symBinAddr: 0x100017C84, symSize: 0x34 }
  - { offset: 0x23C23, size: 0x8, addend: 0x0, symName: __ZNSt9__unicode13_Utf_iteratorIDicPKDiS2_NS_5_ReplEEFeqES4_S4_Qoo16forward_iteratorIT1_ErQS5__Xnefp_fp_E, symObjAddr: 0x17480, symBinAddr: 0x100017C20, symSize: 0x64 }
  - { offset: 0x23C60, size: 0x8, addend: 0x0, symName: __ZNSt9__unicode13_Utf_iteratorIDicPKDiS2_NS_5_ReplEE13_M_read_utf32Ev, symObjAddr: 0x173F4, symBinAddr: 0x100017B94, symSize: 0x8C }
  - { offset: 0x23CAC, size: 0x8, addend: 0x0, symName: __ZNKSt9__unicode9__v16_0_022_Grapheme_cluster_viewISt17basic_string_viewIcSt11char_traitsIcEEE9_IteratoreqERKPKc, symObjAddr: 0x173A4, symBinAddr: 0x100017B44, symSize: 0x50 }
  - { offset: 0x23CE7, size: 0x8, addend: 0x0, symName: __ZNSt9__unicode9__v16_0_022_Grapheme_cluster_viewISt17basic_string_viewIcSt11char_traitsIcEEE9_IteratorppEv, symObjAddr: 0x171EC, symBinAddr: 0x10001798C, symSize: 0x1B8 }
  - { offset: 0x23D8D, size: 0x8, addend: 0x0, symName: __ZNKSt9__unicode13_Utf_iteratorIcDiPKcS2_NS_5_ReplEE3endEv, symObjAddr: 0x171D4, symBinAddr: 0x100017974, symSize: 0x18 }
  - { offset: 0x23DDF, size: 0x8, addend: 0x0, symName: __ZNSt9__unicode9__v16_0_022_Grapheme_cluster_viewISt17basic_string_viewIcSt11char_traitsIcEEEC1ES5_, symObjAddr: 0x17160, symBinAddr: 0x100017900, symSize: 0x74 }
  - { offset: 0x23EA1, size: 0x8, addend: 0x0, symName: __ZNSt8__format18__write_escape_seqINS_10_Sink_iterIcEEcEET_S3_jSt17basic_string_viewIT0_St11char_traitsIS5_EE, symObjAddr: 0x1705C, symBinAddr: 0x1000177FC, symSize: 0x104 }
  - { offset: 0x23FF4, size: 0x8, addend: 0x0, symName: __ZNSt8__format20__write_escaped_charINS_10_Sink_iterIcEEcEET_S3_T0_, symObjAddr: 0x16E74, symBinAddr: 0x100017614, symSize: 0x1E8 }
  - { offset: 0x24050, size: 0x8, addend: 0x0, symName: __ZNSt8__format21__should_escape_asciiIcEEbT_NS_10_Term_charE, symObjAddr: 0x16DA8, symBinAddr: 0x100017548, symSize: 0xCC }
  - { offset: 0x24094, size: 0x8, addend: 0x0, symName: __ZNSt9__unicode13_Utf_iteratorIcDiPKcS2_NS_5_ReplEEFeqES4_S4_Qoo16forward_iteratorIT1_ErQS5__Xnefp_fp_E, symObjAddr: 0x16D44, symBinAddr: 0x1000174E4, symSize: 0x64 }
  - { offset: 0x240CD, size: 0x8, addend: 0x0, symName: __ZNSt8__detail10__to_charsIoEESt15to_chars_resultPcS2_T_i, symObjAddr: 0x16BA0, symBinAddr: 0x100017340, symSize: 0x1A4 }
  - { offset: 0x241B5, size: 0x8, addend: 0x0, symName: __ZNSt8__detail12__to_chars_2IoEESt15to_chars_resultPcS2_T_, symObjAddr: 0x16A8C, symBinAddr: 0x10001722C, symSize: 0x114 }
  - { offset: 0x2423D, size: 0x8, addend: 0x0, symName: __ZNSt8__detail12__to_chars_8IoEESt15to_chars_resultPcS2_T_, symObjAddr: 0x167F8, symBinAddr: 0x100016F98, symSize: 0x294 }
  - { offset: 0x2430B, size: 0x8, addend: 0x0, symName: __ZNSt8__detail13__to_chars_10IoEESt15to_chars_resultPcS2_T_, symObjAddr: 0x16760, symBinAddr: 0x100016F00, symSize: 0x98 }
  - { offset: 0x2437D, size: 0x8, addend: 0x0, symName: __ZNSt8__detail14__to_chars_lenIoEEjT_i, symObjAddr: 0x165CC, symBinAddr: 0x100016D6C, symSize: 0x194 }
  - { offset: 0x243FF, size: 0x8, addend: 0x0, symName: __ZNSt8__detail13__to_chars_16IoEESt15to_chars_resultPcS2_T_, symObjAddr: 0x16350, symBinAddr: 0x100016AF0, symSize: 0x27C }
  - { offset: 0x244E9, size: 0x8, addend: 0x0, symName: __ZNSt8__detail16__to_chars_len_2IoEEjT_, symObjAddr: 0x16334, symBinAddr: 0x100016AD4, symSize: 0x1C }
  - { offset: 0x2451B, size: 0x8, addend: 0x0, symName: __ZNSt7__cxx1112basic_stringIcSt11char_traitsIcESaIcEE9_S_assignEPcmc, symObjAddr: 0x162DC, symBinAddr: 0x100016A7C, symSize: 0x58 }
  - { offset: 0x2456B, size: 0x8, addend: 0x0, symName: __ZNSt7__cxx1112basic_stringIcSt11char_traitsIcESaIcEE6assignEPKcm, symObjAddr: 0x162A0, symBinAddr: 0x100016A40, symSize: 0x3C }
  - { offset: 0x245B3, size: 0x8, addend: 0x0, symName: __ZNSt6ranges14__copy_or_moveILb0EPcS1_NSt8__format10_Sink_iterIcEEEENSt13__conditionalIXT_EE4typeINS_13in_out_resultIT0_T2_EESB_EES9_T1_SA_, symObjAddr: 0x161F0, symBinAddr: 0x100016990, symSize: 0xB0 }
  - { offset: 0x24749, size: 0x8, addend: 0x0, symName: __ZNSt7__cxx1112basic_stringIcSt11char_traitsIcESaIcEE12_M_constructINSt9__unicode13_Utf_iteratorIDicPKDiS9_NS6_5_ReplEEEEEvT_SC_St18input_iterator_tag, symObjAddr: 0x15F5C, symBinAddr: 0x1000166FC, symSize: 0x294 }
  - { offset: 0x24856, size: 0x8, addend: 0x0, symName: __ZZNSt7__cxx1112basic_stringIcSt11char_traitsIcESaIcEE12_M_constructINSt9__unicode13_Utf_iteratorIDicPKDiS9_NS6_5_ReplEEEEEvT_SC_St18input_iterator_tagEN6_GuardC1EPS4_, symObjAddr: 0x15F04, symBinAddr: 0x1000166A4, symSize: 0x24 }
  - { offset: 0x24889, size: 0x8, addend: 0x0, symName: __ZZNSt7__cxx1112basic_stringIcSt11char_traitsIcESaIcEE12_M_constructINSt9__unicode13_Utf_iteratorIDicPKDiS9_NS6_5_ReplEEEEEvT_SC_St18input_iterator_tagEN6_GuardD1Ev, symObjAddr: 0x15F28, symBinAddr: 0x1000166C8, symSize: 0x34 }
  - { offset: 0x2493D, size: 0x8, addend: 0x0, symName: __ZNSt9__unicode13_Utf_iteratorIDicPKDiS2_NS_5_ReplEE7_M_readEv, symObjAddr: 0x15EE4, symBinAddr: 0x100016684, symSize: 0x20 }
  - { offset: 0x24967, size: 0x8, addend: 0x0, symName: __ZNSt9__unicode13_Utf_iteratorIDicPKDiS2_NS_5_ReplEE7_M_currEv, symObjAddr: 0x15ECC, symBinAddr: 0x10001666C, symSize: 0x18 }
  - { offset: 0x249C7, size: 0x8, addend: 0x0, symName: __ZNSt9__unicode13_Utf_iteratorIDicPKDiS2_NS_5_ReplEE15_First_and_currIS2_EC1ES2_S2_, symObjAddr: 0x15E98, symBinAddr: 0x100016638, symSize: 0x34 }
  - { offset: 0x24A0B, size: 0x8, addend: 0x0, symName: __ZNKSt8__format17_WidthPrecVisitorclINSt16basic_format_argISt20basic_format_contextINS_10_Sink_iterIcEEcEE6handleEEEmRT_, symObjAddr: 0x15E7C, symBinAddr: 0x10001661C, symSize: 0x1C }
  - { offset: 0x24A4F, size: 0x8, addend: 0x0, symName: __ZNKSt8__format17_WidthPrecVisitorclISt17basic_string_viewIcSt11char_traitsIcEEEEmRT_, symObjAddr: 0x15E60, symBinAddr: 0x100016600, symSize: 0x1C }
  - { offset: 0x24A93, size: 0x8, addend: 0x0, symName: __ZNKSt8__format17_WidthPrecVisitorclIPKcEEmRT_, symObjAddr: 0x15E44, symBinAddr: 0x1000165E4, symSize: 0x1C }
  - { offset: 0x24AD7, size: 0x8, addend: 0x0, symName: __ZNKSt8__format17_WidthPrecVisitorclIcEEmRT_, symObjAddr: 0x15E28, symBinAddr: 0x1000165C8, symSize: 0x1C }
  - { offset: 0x24B17, size: 0x8, addend: 0x0, symName: __ZNSt9__unicode13__field_widthIcEEmSt17basic_string_viewIT_St11char_traitsIS2_EE, symObjAddr: 0x15D70, symBinAddr: 0x100016510, symSize: 0xB8 }
  - { offset: 0x24B95, size: 0x8, addend: 0x0, symName: __ZNKSt17basic_string_viewIcSt11char_traitsIcEE5emptyEv, symObjAddr: 0x15D4C, symBinAddr: 0x1000164EC, symSize: 0x24 }
  - { offset: 0x24BBB, size: 0x8, addend: 0x0, symName: __ZNSt9__unicode10__truncateIcEEmRSt17basic_string_viewIT_St11char_traitsIS2_EEm, symObjAddr: 0x15C04, symBinAddr: 0x1000163A4, symSize: 0x148 }
  - { offset: 0x24C74, size: 0x8, addend: 0x0, symName: __ZNKSt9__unicode9__v16_0_022_Grapheme_cluster_viewISt17basic_string_viewIcSt11char_traitsIcEEE9_Iterator4baseEv, symObjAddr: 0x15BE4, symBinAddr: 0x100016384, symSize: 0x20 }
  - { offset: 0x24C9E, size: 0x8, addend: 0x0, symName: __ZNKSt9__unicode9__v16_0_022_Grapheme_cluster_viewISt17basic_string_viewIcSt11char_traitsIcEEE9_Iterator5widthEv, symObjAddr: 0x15BC4, symBinAddr: 0x100016364, symSize: 0x20 }
  - { offset: 0x24CCC, size: 0x8, addend: 0x0, symName: __ZNKSt9__unicode9__v16_0_022_Grapheme_cluster_viewISt17basic_string_viewIcSt11char_traitsIcEEE3endEv, symObjAddr: 0x15BA8, symBinAddr: 0x100016348, symSize: 0x1C }
  - { offset: 0x24CFA, size: 0x8, addend: 0x0, symName: __ZNKSt9__unicode9__v16_0_022_Grapheme_cluster_viewISt17basic_string_viewIcSt11char_traitsIcEEE9_Iterator3endEv, symObjAddr: 0x15B88, symBinAddr: 0x100016328, symSize: 0x20 }
  - { offset: 0x24D28, size: 0x8, addend: 0x0, symName: __ZNKSt9__unicode9__v16_0_022_Grapheme_cluster_viewISt17basic_string_viewIcSt11char_traitsIcEEE5beginEv, symObjAddr: 0x15B4C, symBinAddr: 0x1000162EC, symSize: 0x3C }
  - { offset: 0x24D76, size: 0x8, addend: 0x0, symName: __ZNSt8__format5_SinkIcE8_M_writeEc, symObjAddr: 0x15A58, symBinAddr: 0x1000161F8, symSize: 0xF4 }
  - { offset: 0x24EBE, size: 0x8, addend: 0x0, symName: __ZNSt7__cxx1112basic_stringIcSt11char_traitsIcESaIcEE22__resize_and_overwriteIZNKSt8__format14__formatter_fpIcE11_M_localizeESt17basic_string_viewIcS2_EcRKSt6localeEUlPcmE_EEvmT_, symObjAddr: 0x15948, symBinAddr: 0x1000160E8, symSize: 0x110 }
  - { offset: 0x24FAD, size: 0x8, addend: 0x0, symName: __ZZNSt7__cxx1112basic_stringIcSt11char_traitsIcESaIcEE22__resize_and_overwriteIZNKSt8__format14__formatter_fpIcE11_M_localizeESt17basic_string_viewIcS2_EcRKSt6localeEUlPcmE_EEvmT_EN11_TerminatorD1Ev, symObjAddr: 0x15914, symBinAddr: 0x1000160B4, symSize: 0x34 }
  - { offset: 0x25059, size: 0x8, addend: 0x0, symName: __ZSt14__add_groupingIcEPT_S1_S0_PKcmPKS0_S5_, symObjAddr: 0x156C8, symBinAddr: 0x100015E68, symSize: 0x24C }
  - { offset: 0x2514D, size: 0x8, addend: 0x0, symName: __ZNSt8__format23__write_escaped_unicodeIcNS_10_Sink_iterIcEEEET0_S3_St17basic_string_viewIT_St11char_traitsIS5_EENS_10_Term_charE, symObjAddr: 0x152BC, symBinAddr: 0x100015A5C, symSize: 0x40C }
  - { offset: 0x251EE, size: 0x8, addend: 0x0, symName: __ZZNSt8__format23__write_escaped_unicodeIcNS_10_Sink_iterIcEEEET0_S3_St17basic_string_viewIT_St11char_traitsIS5_EENS_10_Term_charEE13__replace_rep, symObjAddr: 0x1E2D8, symBinAddr: 0x10002D9A0, symSize: 0x0 }
  - { offset: 0x253C2, size: 0x8, addend: 0x0, symName: __ZZNSt8__format23__write_escaped_unicodeIcNS_10_Sink_iterIcEEEET0_S3_St17basic_string_viewIT_St11char_traitsIS5_EENS_10_Term_charEENKUlRKS5_E_clINSt9__unicode13_Utf_iteratorIcDiPKcSH_NSE_5_ReplEEEEEDaSB_, symObjAddr: 0x1515C, symBinAddr: 0x1000158FC, symSize: 0x144 }
  - { offset: 0x254AF, size: 0x8, addend: 0x0, symName: __ZNKSt9__unicode13_Utf_iteratorIcDiPKcS2_NS_5_ReplEE8_M_unitsEvQ16forward_iteratorIT1_E, symObjAddr: 0x152A0, symBinAddr: 0x100015A40, symSize: 0x1C }
  - { offset: 0x254E4, size: 0x8, addend: 0x0, symName: __ZNSt9__unicode9_Utf_viewIDiSt17basic_string_viewIcSt11char_traitsIcEEE3endEv, symObjAddr: 0x150F8, symBinAddr: 0x100015898, symSize: 0x64 }
  - { offset: 0x2550E, size: 0x8, addend: 0x0, symName: __ZNSt9__unicode9_Utf_viewIDiSt17basic_string_viewIcSt11char_traitsIcEEE6_M_endIPKcS8_EEDaT_T0_, symObjAddr: 0x150C4, symBinAddr: 0x100015864, symSize: 0x34 }
  - { offset: 0x25570, size: 0x8, addend: 0x0, symName: __ZNSt9__unicode9_Utf_viewIDiSt17basic_string_viewIcSt11char_traitsIcEEE5beginEv, symObjAddr: 0x15060, symBinAddr: 0x100015800, symSize: 0x64 }
  - { offset: 0x2559A, size: 0x8, addend: 0x0, symName: __ZNSt9__unicode9_Utf_viewIDiSt17basic_string_viewIcSt11char_traitsIcEEE8_M_beginIPKcS8_EEDaT_T0_, symObjAddr: 0x1502C, symBinAddr: 0x1000157CC, symSize: 0x34 }
  - { offset: 0x25644, size: 0x8, addend: 0x0, symName: __ZNSt9__unicode9_Utf_viewIDiSt17basic_string_viewIcSt11char_traitsIcEEEC1EOS4_, symObjAddr: 0x14FFC, symBinAddr: 0x10001579C, symSize: 0x30 }
  - { offset: 0x256C7, size: 0x8, addend: 0x0, symName: __ZNKSt6ranges8__access4_EndclIRSt17basic_string_viewIcSt11char_traitsIcEEEEDaOT_, symObjAddr: 0x14FDC, symBinAddr: 0x10001577C, symSize: 0x20 }
  - { offset: 0x25716, size: 0x8, addend: 0x0, symName: __ZNKSt6ranges8__access6_BeginclIRSt17basic_string_viewIcSt11char_traitsIcEEEEDaOT_, symObjAddr: 0x14FBC, symBinAddr: 0x10001575C, symSize: 0x20 }
  - { offset: 0x2576B, size: 0x8, addend: 0x0, symName: __ZNSt8__format8_EscapesIcE7_S_termENS_10_Term_charE, symObjAddr: 0x14F84, symBinAddr: 0x100015724, symSize: 0x38 }
  - { offset: 0x25799, size: 0x8, addend: 0x0, symName: __ZNSt7__cxx1112basic_stringIcSt11char_traitsIcESaIcEE6assignEPKc, symObjAddr: 0x14F38, symBinAddr: 0x1000156D8, symSize: 0x4C }
  - { offset: 0x257D4, size: 0x8, addend: 0x0, symName: __ZNSt7__cxx1112basic_stringIcSt11char_traitsIcESaIcEE5clearEv, symObjAddr: 0x14F14, symBinAddr: 0x1000156B4, symSize: 0x24 }
  - { offset: 0x25802, size: 0x8, addend: 0x0, symName: __ZNSt7__cxx1112basic_stringIcSt11char_traitsIcESaIcEE9_M_assignERKS4_, symObjAddr: 0x14E20, symBinAddr: 0x1000155C0, symSize: 0xF4 }
  - { offset: 0x25916, size: 0x8, addend: 0x0, symName: __ZNKSt17basic_string_viewIcSt11char_traitsIcEE4copyEPcmm, symObjAddr: 0x14D8C, symBinAddr: 0x10001552C, symSize: 0x94 }
  - { offset: 0x25980, size: 0x8, addend: 0x0, symName: __ZSt12__to_chars_iIoESt15to_chars_resultPcS1_T_i, symObjAddr: 0x14BB4, symBinAddr: 0x100015354, symSize: 0x1D8 }
  - { offset: 0x25A2B, size: 0x8, addend: 0x0, symName: __ZNKSt8__format17_WidthPrecVisitorclIoEEmRT_, symObjAddr: 0x14B98, symBinAddr: 0x100015338, symSize: 0x1C }
  - { offset: 0x25A75, size: 0x8, addend: 0x0, symName: __ZNKSt8__format17_WidthPrecVisitorclInEEmRT_, symObjAddr: 0x14B7C, symBinAddr: 0x10001531C, symSize: 0x1C }
  - { offset: 0x25ABF, size: 0x8, addend: 0x0, symName: __ZNKSt8__format17_WidthPrecVisitorclIPKvEEmRT_, symObjAddr: 0x14B60, symBinAddr: 0x100015300, symSize: 0x1C }
  - { offset: 0x25B09, size: 0x8, addend: 0x0, symName: __ZNKSt8__format17_WidthPrecVisitorclIeEEmRT_, symObjAddr: 0x14B44, symBinAddr: 0x1000152E4, symSize: 0x1C }
  - { offset: 0x25B4D, size: 0x8, addend: 0x0, symName: __ZNKSt8__format17_WidthPrecVisitorclIdEEmRT_, symObjAddr: 0x14B28, symBinAddr: 0x1000152C8, symSize: 0x1C }
  - { offset: 0x25B91, size: 0x8, addend: 0x0, symName: __ZNKSt8__format17_WidthPrecVisitorclIfEEmRT_, symObjAddr: 0x14B0C, symBinAddr: 0x1000152AC, symSize: 0x1C }
  - { offset: 0x25BDB, size: 0x8, addend: 0x0, symName: __ZNKSt8__format17_WidthPrecVisitorclIyEEmRT_, symObjAddr: 0x14AF0, symBinAddr: 0x100015290, symSize: 0x1C }
  - { offset: 0x25C25, size: 0x8, addend: 0x0, symName: __ZNKSt8__format17_WidthPrecVisitorclIxEEmRT_, symObjAddr: 0x14AB0, symBinAddr: 0x100015250, symSize: 0x40 }
  - { offset: 0x25C6F, size: 0x8, addend: 0x0, symName: __ZNKSt8__format17_WidthPrecVisitorclIjEEmRT_, symObjAddr: 0x14A90, symBinAddr: 0x100015230, symSize: 0x20 }
  - { offset: 0x25CB3, size: 0x8, addend: 0x0, symName: __ZNKSt8__format17_WidthPrecVisitorclIiEEmRT_, symObjAddr: 0x14A4C, symBinAddr: 0x1000151EC, symSize: 0x44 }
  - { offset: 0x25CF7, size: 0x8, addend: 0x0, symName: __ZNKSt8__format17_WidthPrecVisitorclIbEEmRT_, symObjAddr: 0x14A30, symBinAddr: 0x1000151D0, symSize: 0x1C }
  - { offset: 0x25D41, size: 0x8, addend: 0x0, symName: __ZNKSt8__format17_WidthPrecVisitorclISt9monostateEEmRT_, symObjAddr: 0x14A1C, symBinAddr: 0x1000151BC, symSize: 0x14 }
  - { offset: 0x25DB3, size: 0x8, addend: 0x0, symName: __ZNSt7__cxx1112basic_stringIcSt11char_traitsIcESaIcEE14_M_replace_auxEmmmc, symObjAddr: 0x148C0, symBinAddr: 0x100015060, symSize: 0x15C }
  - { offset: 0x25E79, size: 0x8, addend: 0x0, symName: __ZNSt7__cxx1112basic_stringIcSt11char_traitsIcESaIcEE9push_backEc, symObjAddr: 0x1481C, symBinAddr: 0x100014FBC, symSize: 0xA4 }
  - { offset: 0x25EC5, size: 0x8, addend: 0x0, symName: __ZNSt7__cxx1112basic_stringIcSt11char_traitsIcESaIcEE6assignISt17basic_string_viewIcS2_EEENSt9enable_ifIXsrSt6__and_IJSt14is_convertibleIRKT_S7_ESt6__not_ISA_IPSC_PKS4_EESF_ISA_ISD_PKcEEEE5valueERS4_E4typeESD_, symObjAddr: 0x147CC, symBinAddr: 0x100014F6C, symSize: 0x50 }
  - { offset: 0x25F16, size: 0x8, addend: 0x0, symName: __ZSteqIcSt11char_traitsIcESaIcEEbRKNSt7__cxx1112basic_stringIT_T0_T1_EEPKS5_, symObjAddr: 0x14758, symBinAddr: 0x100014EF8, symSize: 0x74 }
  - { offset: 0x25F6C, size: 0x8, addend: 0x0, symName: __ZNSt6ranges14__copy_or_moveILb0EN9__gnu_cxx17__normal_iteratorIPcNSt4spanIcLm18446744073709551615EE10__iter_tagEEES7_NSt8__format10_Sink_iterIcEEEENSt13__conditionalIXT_EE4typeINS_13in_out_resultIT0_T2_EESH_EESF_T1_SG_, symObjAddr: 0x146F8, symBinAddr: 0x100014E98, symSize: 0x60 }
  - { offset: 0x260EC, size: 0x8, addend: 0x0, symName: __ZNSt8__format15__formatter_intIcE15_S_to_characterIoEEcT_, symObjAddr: 0x146AC, symBinAddr: 0x100014E4C, symSize: 0x4C }
  - { offset: 0x2611F, size: 0x8, addend: 0x0, symName: __ZNSt8__format15__formatter_intIcE8to_charsIoEESt15to_chars_resultPcS4_T_i, symObjAddr: 0x14678, symBinAddr: 0x100014E18, symSize: 0x34 }
  - { offset: 0x26185, size: 0x8, addend: 0x0, symName: __ZNSt8__format15__formatter_intIcE15_S_to_characterInEEcT_, symObjAddr: 0x1462C, symBinAddr: 0x100014DCC, symSize: 0x4C }
  - { offset: 0x26209, size: 0x8, addend: 0x0, symName: __ZNSt7__cxx1112basic_stringIcSt11char_traitsIcESaIcEEC1INSt9__unicode13_Utf_iteratorIDicPKDiS9_NS6_5_ReplEEEvEET_SC_RKS3_, symObjAddr: 0x14560, symBinAddr: 0x100014D00, symSize: 0xCC }
  - { offset: 0x262B5, size: 0x8, addend: 0x0, symName: __ZNSt9__unicode13_Utf_iteratorIDicPKDiS2_NS_5_ReplEEC1ES2_S2_S2_Q22bidirectional_iteratorIT1_E, symObjAddr: 0x144C4, symBinAddr: 0x100014C64, symSize: 0x9C }
  - { offset: 0x262F2, size: 0x8, addend: 0x0, symName: __ZNSt9__unicode21__is_single_code_unitIcEEbDi, symObjAddr: 0x144A4, symBinAddr: 0x100014C44, symSize: 0x20 }
  - { offset: 0x2632A, size: 0x8, addend: 0x0, symName: __ZNSt8__format14__int_from_argISt20basic_format_contextINS_10_Sink_iterIcEEcEEEmRKSt16basic_format_argIT_E, symObjAddr: 0x1446C, symBinAddr: 0x100014C0C, symSize: 0x38 }
  - { offset: 0x2635D, size: 0x8, addend: 0x0, symName: __ZNSt8__format18__visit_format_argINS_17_WidthPrecVisitorESt20basic_format_contextINS_10_Sink_iterIcEEcEEEDcOT_St16basic_format_argIT0_E, symObjAddr: 0x1442C, symBinAddr: 0x100014BCC, symSize: 0x40 }
  - { offset: 0x263D2, size: 0x8, addend: 0x0, symName: __ZNSt16basic_format_argISt20basic_format_contextINSt8__format10_Sink_iterIcEEcEE8_M_visitINS1_17_WidthPrecVisitorEEEDcOT_NS1_6_Arg_tE, symObjAddr: 0x14188, symBinAddr: 0x100014928, symSize: 0x2A4 }
  - { offset: 0x266A0, size: 0x8, addend: 0x0, symName: __ZNSt8__format9_Seq_sinkINSt7__cxx1112basic_stringIcSt11char_traitsIcESaIcEEEE4viewEv, symObjAddr: 0x140A0, symBinAddr: 0x100014840, symSize: 0xE8 }
  - { offset: 0x2676F, size: 0x8, addend: 0x0, symName: __ZNSt8__format15__formatter_strIcE8_S_truncERSt17basic_string_viewIcSt11char_traitsIcEEm, symObjAddr: 0x1405C, symBinAddr: 0x1000147FC, symSize: 0x44 }
  - { offset: 0x267AE, size: 0x8, addend: 0x0, symName: __ZNSt7__cxx1112basic_stringIcSt11char_traitsIcESaIcEE22__resize_and_overwriteIZNKSt8__format14__formatter_fpIcE6formatIdNS6_10_Sink_iterIcEEEENSt20basic_format_contextIT0_cE8iteratorET_RSE_EUlPcmE_EEvmSG_, symObjAddr: 0x13F64, symBinAddr: 0x100014704, symSize: 0xF8 }
  - { offset: 0x2689D, size: 0x8, addend: 0x0, symName: __ZZNSt7__cxx1112basic_stringIcSt11char_traitsIcESaIcEE22__resize_and_overwriteIZNKSt8__format14__formatter_fpIcE6formatIdNS6_10_Sink_iterIcEEEENSt20basic_format_contextIT0_cE8iteratorET_RSE_EUlPcmE_EEvmSG_EN11_TerminatorD1Ev, symObjAddr: 0x13F30, symBinAddr: 0x1000146D0, symSize: 0x34 }
  - { offset: 0x26977, size: 0x8, addend: 0x0, symName: __ZNKSt8__format14__formatter_fpIcE11_M_localizeB5cxx11ESt17basic_string_viewIcSt11char_traitsIcEEcRKSt6locale, symObjAddr: 0x13D38, symBinAddr: 0x1000144D8, symSize: 0x1F8 }
  - { offset: 0x26B51, size: 0x8, addend: 0x0, symName: __ZZNKSt8__format14__formatter_fpIcE11_M_localizeB5cxx11ESt17basic_string_viewIcSt11char_traitsIcEEcRKSt6localeENKUlPcmE_clES9_m, symObjAddr: 0x13BC0, symBinAddr: 0x100014360, symSize: 0x178 }
  - { offset: 0x26C52, size: 0x8, addend: 0x0, symName: __ZNSt7__cxx1112basic_stringIcSt11char_traitsIcESaIcEE22__resize_and_overwriteIZNKSt8__format14__formatter_fpIcE6formatIfNS6_10_Sink_iterIcEEEENSt20basic_format_contextIT0_cE8iteratorET_RSE_EUlPcmE_EEvmSG_, symObjAddr: 0x13AC8, symBinAddr: 0x100014268, symSize: 0xF8 }
  - { offset: 0x26D41, size: 0x8, addend: 0x0, symName: __ZZNSt7__cxx1112basic_stringIcSt11char_traitsIcESaIcEE22__resize_and_overwriteIZNKSt8__format14__formatter_fpIcE6formatIfNS6_10_Sink_iterIcEEEENSt20basic_format_contextIT0_cE8iteratorET_RSE_EUlPcmE_EEvmSG_EN11_TerminatorD1Ev, symObjAddr: 0x13A94, symBinAddr: 0x100014234, symSize: 0x34 }
  - { offset: 0x26DD2, size: 0x8, addend: 0x0, symName: __ZNKSt8__format5_SpecIcE16_M_get_precisionISt20basic_format_contextINS_10_Sink_iterIcEEcEEEmRT_, symObjAddr: 0x13A08, symBinAddr: 0x1000141A8, symSize: 0x8C }
  - { offset: 0x26E23, size: 0x8, addend: 0x0, symName: __ZNSt8__format15__formatter_intIcE15_S_to_characterIyEEcT_, symObjAddr: 0x139D0, symBinAddr: 0x100014170, symSize: 0x38 }
  - { offset: 0x26E56, size: 0x8, addend: 0x0, symName: __ZNSt8__format15__formatter_intIcE8to_charsIyEESt15to_chars_resultPcS4_T_i, symObjAddr: 0x1399C, symBinAddr: 0x10001413C, symSize: 0x34 }
  - { offset: 0x26EBC, size: 0x8, addend: 0x0, symName: __ZNSt8__format15__formatter_intIcE15_S_to_characterIxEEcT_, symObjAddr: 0x13958, symBinAddr: 0x1000140F8, symSize: 0x44 }
  - { offset: 0x26EEF, size: 0x8, addend: 0x0, symName: __ZNSt8__format15__formatter_intIcE15_S_to_characterIjEEcT_, symObjAddr: 0x13920, symBinAddr: 0x1000140C0, symSize: 0x38 }
  - { offset: 0x26F22, size: 0x8, addend: 0x0, symName: __ZNSt8__format15__formatter_intIcE8to_charsIjEESt15to_chars_resultPcS4_T_i, symObjAddr: 0x138EC, symBinAddr: 0x10001408C, symSize: 0x34 }
  - { offset: 0x26F88, size: 0x8, addend: 0x0, symName: __ZNSt8__format15__formatter_intIcE15_S_to_characterIiEEcT_, symObjAddr: 0x138A8, symBinAddr: 0x100014048, symSize: 0x44 }
  - { offset: 0x26FCB, size: 0x8, addend: 0x0, symName: __ZNKSt8__format15__formatter_intIcE13_M_format_intINS_10_Sink_iterIcEEEENSt20basic_format_contextIT_cE8iteratorESt17basic_string_viewIcSt11char_traitsIcEEmRS7_, symObjAddr: 0x13550, symBinAddr: 0x100013CF0, symSize: 0x358 }
  - { offset: 0x27175, size: 0x8, addend: 0x0, symName: __ZNSt8__format10__put_signIhEEPcT_NS_5_SignES1_, symObjAddr: 0x134F0, symBinAddr: 0x100013C90, symSize: 0x60 }
  - { offset: 0x271CA, size: 0x8, addend: 0x0, symName: __ZNSt8__format15__formatter_intIcE8to_charsIhEESt15to_chars_resultPcS4_T_i, symObjAddr: 0x134B4, symBinAddr: 0x100013C54, symSize: 0x3C }
  - { offset: 0x27230, size: 0x8, addend: 0x0, symName: __ZNSt8__format15__formatter_intIcE15_S_to_characterIhEEcT_, symObjAddr: 0x13480, symBinAddr: 0x100013C20, symSize: 0x34 }
  - { offset: 0x27263, size: 0x8, addend: 0x0, symName: __ZNSt8__format15__write_escapedIcNS_10_Sink_iterIcEEEET0_S3_St17basic_string_viewIT_St11char_traitsIS5_EENS_10_Term_charE, symObjAddr: 0x133E8, symBinAddr: 0x100013B88, symSize: 0x98 }
  - { offset: 0x27398, size: 0x8, addend: 0x0, symName: __ZNSt7__cxx1112basic_stringIcSt11char_traitsIcESaIcEEaSEPKc, symObjAddr: 0x133C4, symBinAddr: 0x100013B64, symSize: 0x24 }
  - { offset: 0x273D3, size: 0x8, addend: 0x0, symName: __ZNSt7__cxx1112basic_stringIcSt11char_traitsIcESaIcEEaSEOS4_, symObjAddr: 0x13120, symBinAddr: 0x1000138C0, symSize: 0x2A4 }
  - { offset: 0x2752B, size: 0x8, addend: 0x0, symName: __ZNSt20basic_format_contextINSt8__format10_Sink_iterIcEEcE6localeEv, symObjAddr: 0x130E4, symBinAddr: 0x100013884, symSize: 0x3C }
  - { offset: 0x27555, size: 0x8, addend: 0x0, symName: __ZNSt8__format15__formatter_intIcE11_M_do_parseERSt26basic_format_parse_contextIcENS_10_Pres_typeE, symObjAddr: 0x12D64, symBinAddr: 0x100013504, symSize: 0x380 }
  - { offset: 0x2766B, size: 0x8, addend: 0x0, symName: __ZZNSt8__format15__formatter_intIcE11_M_do_parseERSt26basic_format_parse_contextIcENS_10_Pres_typeEENKUlvE_clEv, symObjAddr: 0x12CCC, symBinAddr: 0x10001346C, symSize: 0x34 }
  - { offset: 0x2777E, size: 0x8, addend: 0x0, symName: __ZZNSt8__format15__formatter_intIcE11_M_do_parseERSt26basic_format_parse_contextIcENS_10_Pres_typeEENKUlvE0_clEv, symObjAddr: 0x12D00, symBinAddr: 0x1000134A0, symSize: 0x64 }
  - { offset: 0x277FC, size: 0x8, addend: 0x0, symName: __ZNSt8__format5_SinkIcE8_M_writeESt17basic_string_viewIcSt11char_traitsIcEE, symObjAddr: 0x12AA0, symBinAddr: 0x100013240, symSize: 0x22C }
  - { offset: 0x279D1, size: 0x8, addend: 0x0, symName: __ZNSt8__format10__put_signIoEEPcT_NS_5_SignES1_, symObjAddr: 0x12A40, symBinAddr: 0x1000131E0, symSize: 0x60 }
  - { offset: 0x27A26, size: 0x8, addend: 0x0, symName: __ZNSt8__format10__put_signInEEPcT_NS_5_SignES1_, symObjAddr: 0x129C4, symBinAddr: 0x100013164, symSize: 0x7C }
  - { offset: 0x27A7F, size: 0x8, addend: 0x0, symName: __ZNSt7__cxx1112basic_stringIcSt11char_traitsIcESaIcEEixEm, symObjAddr: 0x12940, symBinAddr: 0x1000130E0, symSize: 0x84 }
  - { offset: 0x27AD8, size: 0x8, addend: 0x0, symName: __ZNSt7__cxx1112basic_stringIcSt11char_traitsIcESaIcEE6insertEmmc, symObjAddr: 0x128EC, symBinAddr: 0x10001308C, symSize: 0x54 }
  - { offset: 0x27B35, size: 0x8, addend: 0x0, symName: __ZNSt7__cxx1112basic_stringIcSt11char_traitsIcESaIcEE6appendISt17basic_string_viewIcS2_EEENSt9enable_ifIXsrSt6__and_IJSt14is_convertibleIRKT_S7_ESt6__not_ISA_IPSC_PKS4_EESF_ISA_ISD_PKcEEEE5valueERS4_E4typeESD_, symObjAddr: 0x1289C, symBinAddr: 0x10001303C, symSize: 0x50 }
  - { offset: 0x27B8A, size: 0x8, addend: 0x0, symName: __ZNSt7__cxx1112basic_stringIcSt11char_traitsIcESaIcEE6appendEmc, symObjAddr: 0x12858, symBinAddr: 0x100012FF8, symSize: 0x44 }
  - { offset: 0x27BD6, size: 0x8, addend: 0x0, symName: __ZNSt7__cxx1112basic_stringIcSt11char_traitsIcESaIcEEpLEc, symObjAddr: 0x12828, symBinAddr: 0x100012FC8, symSize: 0x30 }
  - { offset: 0x27C11, size: 0x8, addend: 0x0, symName: __ZNSt7__cxx1112basic_stringIcSt11char_traitsIcESaIcEEaSISt17basic_string_viewIcS2_EEENSt9enable_ifIXsrSt6__and_IJSt14is_convertibleIRKT_S7_ESt6__not_ISA_IPSC_PKS4_EESF_ISA_ISD_PKcEEEE5valueERS4_E4typeESD_, symObjAddr: 0x12804, symBinAddr: 0x100012FA4, symSize: 0x24 }
  - { offset: 0x27C58, size: 0x8, addend: 0x0, symName: __ZNKSt17basic_string_viewIcSt11char_traitsIcEE17find_first_not_ofEcm, symObjAddr: 0x12788, symBinAddr: 0x100012F28, symSize: 0x7C }
  - { offset: 0x27C9E, size: 0x8, addend: 0x0, symName: __ZNSt8__format10__put_signIyEEPcT_NS_5_SignES1_, symObjAddr: 0x12728, symBinAddr: 0x100012EC8, symSize: 0x60 }
  - { offset: 0x27CF3, size: 0x8, addend: 0x0, symName: __ZNSt8__format10__put_signIxEEPcT_NS_5_SignES1_, symObjAddr: 0x126AC, symBinAddr: 0x100012E4C, symSize: 0x7C }
  - { offset: 0x27D48, size: 0x8, addend: 0x0, symName: __ZNSt8__format10__put_signIiEEPcT_NS_5_SignES1_, symObjAddr: 0x12630, symBinAddr: 0x100012DD0, symSize: 0x7C }
  - { offset: 0x27D9D, size: 0x8, addend: 0x0, symName: __ZNSt8__format10__put_signIjEEPcT_NS_5_SignES1_, symObjAddr: 0x125D0, symBinAddr: 0x100012D70, symSize: 0x60 }
  - { offset: 0x27DFA, size: 0x8, addend: 0x0, symName: __ZNSt7__cxx1112basic_stringIcSt11char_traitsIcESaIcEE6resizeEmc, symObjAddr: 0x12550, symBinAddr: 0x100012CF0, symSize: 0x80 }
  - { offset: 0x27EAB, size: 0x8, addend: 0x0, symName: __ZNKSt6ranges9__copy_fnclIN9__gnu_cxx17__normal_iteratorIPcNSt4spanIcLm18446744073709551615EE10__iter_tagEEES8_NSt8__format10_Sink_iterIcEEEENS_13in_out_resultIT_T1_EESD_T0_SE_, symObjAddr: 0x12514, symBinAddr: 0x100012CB4, symSize: 0x3C }
  - { offset: 0x27F86, size: 0x8, addend: 0x0, symName: __ZNKSt8__format15__formatter_intIcE6formatIoNS_10_Sink_iterIcEEEENSt20basic_format_contextIT0_cE8iteratorET_RS7_, symObjAddr: 0x121CC, symBinAddr: 0x10001296C, symSize: 0x348 }
  - { offset: 0x28093, size: 0x8, addend: 0x0, symName: __ZNSt8__format15__formatter_intIcE8_M_parseIoEEPKcRSt26basic_format_parse_contextIcE, symObjAddr: 0x121A4, symBinAddr: 0x100012944, symSize: 0x28 }
  - { offset: 0x280D7, size: 0x8, addend: 0x0, symName: __ZNKSt8__format15__formatter_intIcE6formatInNS_10_Sink_iterIcEEEENSt20basic_format_contextIT0_cE8iteratorET_RS7_, symObjAddr: 0x11E34, symBinAddr: 0x1000125D4, symSize: 0x370 }
  - { offset: 0x281D6, size: 0x8, addend: 0x0, symName: __ZNSt8__format15__formatter_intIcE8_M_parseInEEPKcRSt26basic_format_parse_contextIcE, symObjAddr: 0x11E0C, symBinAddr: 0x1000125AC, symSize: 0x28 }
  - { offset: 0x2821C, size: 0x8, addend: 0x0, symName: __ZNSt8__format22__write_padded_as_specIcNS_10_Sink_iterIcEEEET0_St17basic_string_viewINSt13type_identityIT_E4typeESt11char_traitsIS8_EEmRSt20basic_format_contextIS3_S6_ERKNS_5_SpecIS6_EENS_6_AlignE, symObjAddr: 0x11D4C, symBinAddr: 0x1000124EC, symSize: 0xC0 }
  - { offset: 0x282BE, size: 0x8, addend: 0x0, symName: __ZNSt8__format14__write_paddedINS_10_Sink_iterIcEEcEET_S3_St17basic_string_viewIT0_St11char_traitsIS5_EENS_6_AlignEmDi, symObjAddr: 0x11A8C, symBinAddr: 0x10001222C, symSize: 0x2C0 }
  - { offset: 0x2840B, size: 0x8, addend: 0x0, symName: __ZZNSt8__format14__write_paddedINS_10_Sink_iterIcEEcEET_S3_St17basic_string_viewIT0_St11char_traitsIS5_EENS_6_AlignEmDiENKUlmRS2_E_clEmSA_, symObjAddr: 0x11828, symBinAddr: 0x100011FC8, symSize: 0xF8 }
  - { offset: 0x2862A, size: 0x8, addend: 0x0, symName: __ZNSt9__unicode9_Utf_viewIcRA1_KDiE3endEv, symObjAddr: 0x11A20, symBinAddr: 0x1000121C0, symSize: 0x6C }
  - { offset: 0x28654, size: 0x8, addend: 0x0, symName: __ZNSt9__unicode9_Utf_viewIcRA1_KDiE6_M_endIPS1_S6_EEDaT_T0_, symObjAddr: 0x119EC, symBinAddr: 0x10001218C, symSize: 0x34 }
  - { offset: 0x286B6, size: 0x8, addend: 0x0, symName: __ZNSt9__unicode9_Utf_viewIcRA1_KDiE5beginEv, symObjAddr: 0x11980, symBinAddr: 0x100012120, symSize: 0x6C }
  - { offset: 0x286E0, size: 0x8, addend: 0x0, symName: __ZNSt9__unicode9_Utf_viewIcRA1_KDiE8_M_beginIPS1_S6_EEDaT_T0_, symObjAddr: 0x1194C, symBinAddr: 0x1000120EC, symSize: 0x34 }
  - { offset: 0x28766, size: 0x8, addend: 0x0, symName: __ZNSt9__unicode9_Utf_viewIcRA1_KDiEC1ES3_, symObjAddr: 0x11920, symBinAddr: 0x1000120C0, symSize: 0x2C }
  - { offset: 0x287B9, size: 0x8, addend: 0x0, symName: __ZNSt17basic_string_viewIcSt11char_traitsIcEE13remove_prefixEm, symObjAddr: 0x11798, symBinAddr: 0x100011F38, symSize: 0x90 }
  - { offset: 0x28811, size: 0x8, addend: 0x0, symName: __ZNKSt8__format5_SpecIcE12_M_get_widthISt20basic_format_contextINS_10_Sink_iterIcEEcEEEmRT_, symObjAddr: 0x11710, symBinAddr: 0x100011EB0, symSize: 0x88 }
  - { offset: 0x28872, size: 0x8, addend: 0x0, symName: __ZNKSt8__format15__formatter_strIcE6formatINS_10_Sink_iterIcEEEET_St17basic_string_viewIcSt11char_traitsIcEERSt20basic_format_contextIS5_cE, symObjAddr: 0x11450, symBinAddr: 0x100011BF0, symSize: 0x2C0 }
  - { offset: 0x28981, size: 0x8, addend: 0x0, symName: __ZZNKSt8__format15__formatter_strIcE6formatINS_10_Sink_iterIcEEEET_St17basic_string_viewIcSt11char_traitsIcEERSt20basic_format_contextIS5_cEENKUlvE_clEv, symObjAddr: 0x113CC, symBinAddr: 0x100011B6C, symSize: 0x84 }
  - { offset: 0x28B56, size: 0x8, addend: 0x0, symName: __ZNSt8__format15__formatter_strIcE5parseERSt26basic_format_parse_contextIcE, symObjAddr: 0x11274, symBinAddr: 0x100011A14, symSize: 0x158 }
  - { offset: 0x28C5A, size: 0x8, addend: 0x0, symName: __ZZNSt8__format15__formatter_strIcE5parseERSt26basic_format_parse_contextIcEENKUlvE_clEv, symObjAddr: 0x111DC, symBinAddr: 0x10001197C, symSize: 0x34 }
  - { offset: 0x28D6D, size: 0x8, addend: 0x0, symName: __ZZNSt8__format15__formatter_strIcE5parseERSt26basic_format_parse_contextIcEENKUlvE0_clEv, symObjAddr: 0x11210, symBinAddr: 0x1000119B0, symSize: 0x64 }
  - { offset: 0x28DE5, size: 0x8, addend: 0x0, symName: __ZNKSt8__format14__formatter_fpIcE6formatIdNS_10_Sink_iterIcEEEENSt20basic_format_contextIT0_cE8iteratorET_RS7_, symObjAddr: 0x1072C, symBinAddr: 0x100010ECC, symSize: 0xAB0 }
  - { offset: 0x28FBA, size: 0x8, addend: 0x0, symName: __ZZNKSt8__format14__formatter_fpIcE6formatIdNS_10_Sink_iterIcEEEENSt20basic_format_contextIT0_cE8iteratorET_RS7_ENKUlPcSB_E_clESB_SB_, symObjAddr: 0x105C4, symBinAddr: 0x100010D64, symSize: 0xD8 }
  - { offset: 0x291DD, size: 0x8, addend: 0x0, symName: __ZZNKSt8__format14__formatter_fpIcE6formatIdNS_10_Sink_iterIcEEEENSt20basic_format_contextIT0_cE8iteratorET_RS7_ENKUlPcmE_clESB_m, symObjAddr: 0x1069C, symBinAddr: 0x100010E3C, symSize: 0x90 }
  - { offset: 0x293DA, size: 0x8, addend: 0x0, symName: __ZNKSt8__format14__formatter_fpIcE6formatIfNS_10_Sink_iterIcEEEENSt20basic_format_contextIT0_cE8iteratorET_RS7_, symObjAddr: 0xFB18, symBinAddr: 0x1000102B8, symSize: 0xAAC }
  - { offset: 0x295AF, size: 0x8, addend: 0x0, symName: __ZZNKSt8__format14__formatter_fpIcE6formatIfNS_10_Sink_iterIcEEEENSt20basic_format_contextIT0_cE8iteratorET_RS7_ENKUlPcSB_E_clESB_SB_, symObjAddr: 0xF9B0, symBinAddr: 0x100010150, symSize: 0xD8 }
  - { offset: 0x297D2, size: 0x8, addend: 0x0, symName: __ZZNKSt8__format14__formatter_fpIcE6formatIfNS_10_Sink_iterIcEEEENSt20basic_format_contextIT0_cE8iteratorET_RS7_ENKUlPcmE_clESB_m, symObjAddr: 0xFA88, symBinAddr: 0x100010228, symSize: 0x90 }
  - { offset: 0x299CF, size: 0x8, addend: 0x0, symName: __ZNKSt8__format15__formatter_intIcE6formatIyNS_10_Sink_iterIcEEEENSt20basic_format_contextIT0_cE8iteratorET_RS7_, symObjAddr: 0xF674, symBinAddr: 0x10000FE14, symSize: 0x33C }
  - { offset: 0x29ADC, size: 0x8, addend: 0x0, symName: __ZNSt8__format15__formatter_intIcE8_M_parseIyEEPKcRSt26basic_format_parse_contextIcE, symObjAddr: 0xF64C, symBinAddr: 0x10000FDEC, symSize: 0x28 }
  - { offset: 0x29B20, size: 0x8, addend: 0x0, symName: __ZNKSt8__format15__formatter_intIcE6formatIxNS_10_Sink_iterIcEEEENSt20basic_format_contextIT0_cE8iteratorET_RS7_, symObjAddr: 0xF2F4, symBinAddr: 0x10000FA94, symSize: 0x358 }
  - { offset: 0x29C1F, size: 0x8, addend: 0x0, symName: __ZNSt8__format15__formatter_intIcE8_M_parseIxEEPKcRSt26basic_format_parse_contextIcE, symObjAddr: 0xF2CC, symBinAddr: 0x10000FA6C, symSize: 0x28 }
  - { offset: 0x29C63, size: 0x8, addend: 0x0, symName: __ZNKSt8__format15__formatter_intIcE6formatIjNS_10_Sink_iterIcEEEENSt20basic_format_contextIT0_cE8iteratorET_RS7_, symObjAddr: 0xEF90, symBinAddr: 0x10000F730, symSize: 0x33C }
  - { offset: 0x29D70, size: 0x8, addend: 0x0, symName: __ZNSt8__format15__formatter_intIcE8_M_parseIjEEPKcRSt26basic_format_parse_contextIcE, symObjAddr: 0xEF68, symBinAddr: 0x10000F708, symSize: 0x28 }
  - { offset: 0x29DB4, size: 0x8, addend: 0x0, symName: __ZNKSt8__format15__formatter_intIcE6formatIiNS_10_Sink_iterIcEEEENSt20basic_format_contextIT0_cE8iteratorET_RS7_, symObjAddr: 0xEC10, symBinAddr: 0x10000F3B0, symSize: 0x358 }
  - { offset: 0x29EB3, size: 0x8, addend: 0x0, symName: __ZNSt8__format15__formatter_intIcE8_M_parseIiEEPKcRSt26basic_format_parse_contextIcE, symObjAddr: 0xEBE8, symBinAddr: 0x10000F388, symSize: 0x28 }
  - { offset: 0x29EF7, size: 0x8, addend: 0x0, symName: __ZNKSt8__format15__formatter_intIcE6formatIhNS_10_Sink_iterIcEEEENSt20basic_format_contextIT0_cE8iteratorET_RS7_, symObjAddr: 0xE894, symBinAddr: 0x10000F034, symSize: 0x354 }
  - { offset: 0x2A004, size: 0x8, addend: 0x0, symName: __ZNKSt8__format15__formatter_intIcE27_M_format_character_escapedINS_10_Sink_iterIcEEEENSt20basic_format_contextIT_cE8iteratorEcRS7_, symObjAddr: 0xE6D8, symBinAddr: 0x10000EE78, symSize: 0x1BC }
  - { offset: 0x2A1D5, size: 0x8, addend: 0x0, symName: __ZNKSt17basic_string_viewIcSt11char_traitsIcEE6substrEmm, symObjAddr: 0xE650, symBinAddr: 0x10000EDF0, symSize: 0x88 }
  - { offset: 0x2A232, size: 0x8, addend: 0x0, symName: __ZNKSt8__format14_Fixedbuf_sinkIcE4viewEv, symObjAddr: 0xE5A4, symBinAddr: 0x10000ED44, symSize: 0xAC }
  - { offset: 0x2A36E, size: 0x8, addend: 0x0, symName: __ZNSt4spanIcLm18446744073709551615EEC1ILm12EEERAT__c, symObjAddr: 0xE548, symBinAddr: 0x10000ECE8, symSize: 0x5C }
  - { offset: 0x2A3D3, size: 0x8, addend: 0x0, symName: __ZNKSt8__format15__formatter_intIcE19_M_format_characterINS_10_Sink_iterIcEEEENSt20basic_format_contextIT_cE8iteratorEcRS7_, symObjAddr: 0xE4F0, symBinAddr: 0x10000EC90, symSize: 0x58 }
  - { offset: 0x2A44C, size: 0x8, addend: 0x0, symName: __ZNSt8__format15__formatter_intIcE8_M_parseIcEEPKcRSt26basic_format_parse_contextIcE, symObjAddr: 0xE448, symBinAddr: 0x10000EBE8, symSize: 0xA8 }
  - { offset: 0x2A4B4, size: 0x8, addend: 0x0, symName: __ZNKSt8__format15__formatter_intIcE6formatINS_10_Sink_iterIcEEEENSt20basic_format_contextIT_cE8iteratorEbRS7_, symObjAddr: 0xE278, symBinAddr: 0x10000EA18, symSize: 0x1D0 }
  - { offset: 0x2A54E, size: 0x8, addend: 0x0, symName: __ZNSt8__format15__formatter_intIcE8_M_parseIbEEPKcRSt26basic_format_parse_contextIcE, symObjAddr: 0xE1EC, symBinAddr: 0x10000E98C, symSize: 0x8C }
  - { offset: 0x2A5FE, size: 0x8, addend: 0x0, symName: __ZNKSt6ranges8__access4_EndclIRA1_KDiEEDaOT_, symObjAddr: 0xE1D0, symBinAddr: 0x10000E970, symSize: 0x1C }
  - { offset: 0x2A641, size: 0x8, addend: 0x0, symName: __ZNKSt6ranges8__access6_BeginclIRA1_KDiEEDaOT_, symObjAddr: 0xE1B8, symBinAddr: 0x10000E958, symSize: 0x18 }
  - { offset: 0x2A6C0, size: 0x8, addend: 0x0, symName: __ZNKSt7__cxx1112basic_stringIcSt11char_traitsIcESaIcEE5emptyEv, symObjAddr: 0xE194, symBinAddr: 0x10000E934, symSize: 0x24 }
  - { offset: 0x2A6EA, size: 0x8, addend: 0x0, symName: __ZNKSt17integral_constantImLm12EEcvmEv, symObjAddr: 0xE180, symBinAddr: 0x10000E920, symSize: 0x14 }
  - { offset: 0x2A714, size: 0x8, addend: 0x0, symName: __ZNSt7__cxx1112basic_stringIcSt11char_traitsIcESaIcEE6resizeEm, symObjAddr: 0xE154, symBinAddr: 0x10000E8F4, symSize: 0x2C }
  - { offset: 0x2A74F, size: 0x8, addend: 0x0, symName: __ZNSt8__format5_SinkIcE8_M_resetESt4spanIcLm18446744073709551615EEm, symObjAddr: 0xE0E8, symBinAddr: 0x10000E888, symSize: 0x6C }
  - { offset: 0x2A81C, size: 0x8, addend: 0x0, symName: __ZNSt4spanIcLm18446744073709551615EEC1IRNSt7__cxx1112basic_stringIcSt11char_traitsIcESaIcEEEEEOT_, symObjAddr: 0xE078, symBinAddr: 0x10000E818, symSize: 0x70 }
  - { offset: 0x2A880, size: 0x8, addend: 0x0, symName: __ZNSt7__cxx1112basic_stringIcSt11char_traitsIcESaIcEE4dataEv, symObjAddr: 0xE05C, symBinAddr: 0x10000E7FC, symSize: 0x1C }
  - { offset: 0x2A8AA, size: 0x8, addend: 0x0, symName: __ZNSt7__cxx1112basic_stringIcSt11char_traitsIcESaIcEE22__resize_and_overwriteIZNSt8__format9_Seq_sinkIS4_E10_M_reserveEmEUlT_T0_E_EEvmS9_, symObjAddr: 0xDF64, symBinAddr: 0x10000E704, symSize: 0xF8 }
  - { offset: 0x2A999, size: 0x8, addend: 0x0, symName: __ZZNSt7__cxx1112basic_stringIcSt11char_traitsIcESaIcEE22__resize_and_overwriteIZNSt8__format9_Seq_sinkIS4_E10_M_reserveEmEUlT_T0_E_EEvmS9_EN11_TerminatorD1Ev, symObjAddr: 0xDF14, symBinAddr: 0x10000E6B4, symSize: 0x34 }
  - { offset: 0x2AA1E, size: 0x8, addend: 0x0, symName: __ZNSt8__format9_Seq_sinkINSt7__cxx1112basic_stringIcSt11char_traitsIcESaIcEEEE10_M_reserveEm, symObjAddr: 0xD408, symBinAddr: 0x10000DBA8, symSize: 0x110 }
  - { offset: 0x2AAB1, size: 0x8, addend: 0x0, symName: __ZZNSt8__format9_Seq_sinkINSt7__cxx1112basic_stringIcSt11char_traitsIcESaIcEEEE10_M_reserveEmENKUlT_T0_E_clIPcmEEDaS8_S9_, symObjAddr: 0xDF48, symBinAddr: 0x10000E6E8, symSize: 0x1C }
  - { offset: 0x2ABC4, size: 0x8, addend: 0x0, symName: __ZNKSt6ranges9__copy_fnclIRSt4spanIcLm18446744073709551615EENSt8__format10_Sink_iterIcEEEENS_13in_out_resultINSt13__conditionalIX14borrowed_rangeIT_EEE4typeIDTcl7__begincl7declvalIRSA_EEEENS_8danglingEEET0_EEOSA_SH_, symObjAddr: 0xDEB0, symBinAddr: 0x10000E650, symSize: 0x64 }
  - { offset: 0x2AC43, size: 0x8, addend: 0x0, symName: __ZNKSt4spanIcLm18446744073709551615EE3endEv, symObjAddr: 0xDE6C, symBinAddr: 0x10000E60C, symSize: 0x44 }
  - { offset: 0x2ACA0, size: 0x8, addend: 0x0, symName: __ZNKSt9formatterIocE6formatINSt8__format10_Sink_iterIcEEEENSt20basic_format_contextIT_cE8iteratorEoRS7_, symObjAddr: 0xDE40, symBinAddr: 0x10000E5E0, symSize: 0x2C }
  - { offset: 0x2AD25, size: 0x8, addend: 0x0, symName: __ZNKSt9formatterIncE6formatINSt8__format10_Sink_iterIcEEEENSt20basic_format_contextIT_cE8iteratorEnRS7_, symObjAddr: 0xDE14, symBinAddr: 0x10000E5B4, symSize: 0x2C }
  - { offset: 0x2AE10, size: 0x8, addend: 0x0, symName: __ZNKSt9formatterIPKvcE6formatINSt8__format10_Sink_iterIcEEEENSt20basic_format_contextIT_cE8iteratorES1_RS9_, symObjAddr: 0xDC34, symBinAddr: 0x10000E3D4, symSize: 0x1E0 }
  - { offset: 0x2AFC6, size: 0x8, addend: 0x0, symName: __ZNSt17basic_string_viewIcSt11char_traitsIcEEC1Ev, symObjAddr: 0xDC10, symBinAddr: 0x10000E3B0, symSize: 0x24 }
  - { offset: 0x2AFEC, size: 0x8, addend: 0x0, symName: __ZNSt9formatterIPKvcE5parseERSt26basic_format_parse_contextIcE, symObjAddr: 0xDA98, symBinAddr: 0x10000E238, symSize: 0x178 }
  - { offset: 0x2B0F0, size: 0x8, addend: 0x0, symName: __ZZNSt9formatterIPKvcE5parseERSt26basic_format_parse_contextIcEENKUlvE_clEv, symObjAddr: 0xDA00, symBinAddr: 0x10000E1A0, symSize: 0x34 }
  - { offset: 0x2B203, size: 0x8, addend: 0x0, symName: __ZZNSt9formatterIPKvcE5parseERSt26basic_format_parse_contextIcEENKUlvE0_clEv, symObjAddr: 0xDA34, symBinAddr: 0x10000E1D4, symSize: 0x64 }
  - { offset: 0x2B287, size: 0x8, addend: 0x0, symName: __ZNKSt9formatterISt17basic_string_viewIcSt11char_traitsIcEEcE6formatINSt8__format10_Sink_iterIcEEEENSt20basic_format_contextIT_cE8iteratorES3_RSB_, symObjAddr: 0xD9D4, symBinAddr: 0x10000E174, symSize: 0x2C }
  - { offset: 0x2B30C, size: 0x8, addend: 0x0, symName: __ZNKSt9formatterIPKccE6formatINSt8__format10_Sink_iterIcEEEENSt20basic_format_contextIT_cE8iteratorES1_RS9_, symObjAddr: 0xD990, symBinAddr: 0x10000E130, symSize: 0x44 }
  - { offset: 0x2B391, size: 0x8, addend: 0x0, symName: __ZNKSt9formatterIecE6formatINSt8__format10_Sink_iterIcEEEENSt20basic_format_contextIT_cE8iteratorEeRS7_, symObjAddr: 0xD964, symBinAddr: 0x10000E104, symSize: 0x2C }
  - { offset: 0x2B416, size: 0x8, addend: 0x0, symName: __ZNKSt9formatterIdcE6formatINSt8__format10_Sink_iterIcEEEENSt20basic_format_contextIT_cE8iteratorEdRS7_, symObjAddr: 0xD938, symBinAddr: 0x10000E0D8, symSize: 0x2C }
  - { offset: 0x2B477, size: 0x8, addend: 0x0, symName: __ZNKSt9formatterIfcE6formatINSt8__format10_Sink_iterIcEEEENSt20basic_format_contextIT_cE8iteratorEfRS7_, symObjAddr: 0xD90C, symBinAddr: 0x10000E0AC, symSize: 0x2C }
  - { offset: 0x2B4FC, size: 0x8, addend: 0x0, symName: __ZNKSt9formatterIycE6formatINSt8__format10_Sink_iterIcEEEENSt20basic_format_contextIT_cE8iteratorEyRS7_, symObjAddr: 0xD8E0, symBinAddr: 0x10000E080, symSize: 0x2C }
  - { offset: 0x2B581, size: 0x8, addend: 0x0, symName: __ZNKSt9formatterIxcE6formatINSt8__format10_Sink_iterIcEEEENSt20basic_format_contextIT_cE8iteratorExRS7_, symObjAddr: 0xD8B4, symBinAddr: 0x10000E054, symSize: 0x2C }
  - { offset: 0x2B606, size: 0x8, addend: 0x0, symName: __ZNKSt9formatterIjcE6formatINSt8__format10_Sink_iterIcEEEENSt20basic_format_contextIT_cE8iteratorEjRS7_, symObjAddr: 0xD888, symBinAddr: 0x10000E028, symSize: 0x2C }
  - { offset: 0x2B68B, size: 0x8, addend: 0x0, symName: __ZNKSt9formatterIicE6formatINSt8__format10_Sink_iterIcEEEENSt20basic_format_contextIT_cE8iteratorEiRS7_, symObjAddr: 0xD85C, symBinAddr: 0x10000DFFC, symSize: 0x2C }
  - { offset: 0x2B710, size: 0x8, addend: 0x0, symName: __ZNKSt9formatterIccE6formatINSt8__format10_Sink_iterIcEEEENSt20basic_format_contextIT_cE8iteratorEcRS7_, symObjAddr: 0xD7BC, symBinAddr: 0x10000DF5C, symSize: 0xA0 }
  - { offset: 0x2B765, size: 0x8, addend: 0x0, symName: __ZNSt9formatterIccE5parseERSt26basic_format_parse_contextIcE, symObjAddr: 0xD798, symBinAddr: 0x10000DF38, symSize: 0x24 }
  - { offset: 0x2B7AC, size: 0x8, addend: 0x0, symName: __ZNKSt9formatterIbcE6formatINSt8__format10_Sink_iterIcEEEENSt20basic_format_contextIT_cE8iteratorEbRS7_, symObjAddr: 0xD768, symBinAddr: 0x10000DF08, symSize: 0x30 }
  - { offset: 0x2B849, size: 0x8, addend: 0x0, symName: __ZNKSt20basic_format_contextINSt8__format10_Sink_iterIcEEcE3argEm, symObjAddr: 0xD668, symBinAddr: 0x10000DE08, symSize: 0x100 }
  - { offset: 0x2B8FC, size: 0x8, addend: 0x0, symName: __ZNSt20basic_format_contextINSt8__format10_Sink_iterIcEEcE10advance_toES2_, symObjAddr: 0xD640, symBinAddr: 0x10000DDE0, symSize: 0x28 }
  - { offset: 0x2B954, size: 0x8, addend: 0x0, symName: __ZNSt8__format7__writeINS_10_Sink_iterIcEEcEET_S3_St17basic_string_viewIT0_St11char_traitsIS5_EE, symObjAddr: 0xD5EC, symBinAddr: 0x10000DD8C, symSize: 0x54 }
  - { offset: 0x2B9CF, size: 0x8, addend: 0x0, symName: __ZNSt8__format9_Seq_sinkINSt7__cxx1112basic_stringIcSt11char_traitsIcESaIcEEEE7_M_bumpEm, symObjAddr: 0xD518, symBinAddr: 0x10000DCB8, symSize: 0xD4 }
  - { offset: 0x2BAD3, size: 0x8, addend: 0x0, symName: __ZNKSt6ranges8__access5_SizeclIRNSt7__cxx1112basic_stringIcSt11char_traitsIcESaIcEEEEEDaOT_, symObjAddr: 0xD3E8, symBinAddr: 0x10000DB88, symSize: 0x20 }
  - { offset: 0x2BB23, size: 0x8, addend: 0x0, symName: __ZNKSt6ranges8__access5_DataclIRNSt7__cxx1112basic_stringIcSt11char_traitsIcESaIcEEEEEDaOT_, symObjAddr: 0xD3C8, symBinAddr: 0x10000DB68, symSize: 0x20 }
  - { offset: 0x2BB67, size: 0x8, addend: 0x0, symName: __ZNSt8__format10_Iter_sinkIcNS_10_Sink_iterIcEEE11_M_overflowEv, symObjAddr: 0xD208, symBinAddr: 0x10000D9A8, symSize: 0x1C0 }
  - { offset: 0x2BCDC, size: 0x8, addend: 0x0, symName: __ZNKSt6ranges8__access4_EndclIRSt4spanIcLm18446744073709551615EEEEDaOT_, symObjAddr: 0xD1E8, symBinAddr: 0x10000D988, symSize: 0x20 }
  - { offset: 0x2BD1F, size: 0x8, addend: 0x0, symName: __ZNKSt6ranges8__access6_BeginclIRSt4spanIcLm18446744073709551615EEEEDaOT_, symObjAddr: 0xD1C8, symBinAddr: 0x10000D968, symSize: 0x20 }
  - { offset: 0x2BD62, size: 0x8, addend: 0x0, symName: __ZNSt8__format19_Formatting_scannerINS_10_Sink_iterIcEEcE13_M_format_argEm, symObjAddr: 0xD168, symBinAddr: 0x10000D908, symSize: 0x60 }
  - { offset: 0x2BDC8, size: 0x8, addend: 0x0, symName: __ZZNSt8__format19_Formatting_scannerINS_10_Sink_iterIcEEcE13_M_format_argEmENKUlRT_E_clIoEEDaS5_, symObjAddr: 0xCDD0, symBinAddr: 0x10000D570, symSize: 0xB0 }
  - { offset: 0x2BE9F, size: 0x8, addend: 0x0, symName: __ZZNSt8__format19_Formatting_scannerINS_10_Sink_iterIcEEcE13_M_format_argEmENKUlRT_E_clInEEDaS5_, symObjAddr: 0xCD20, symBinAddr: 0x10000D4C0, symSize: 0xB0 }
  - { offset: 0x2BF6C, size: 0x8, addend: 0x0, symName: __ZZNSt8__format19_Formatting_scannerINS_10_Sink_iterIcEEcE13_M_format_argEmENKUlRT_E_clINSt16basic_format_argISt20basic_format_contextIS2_cEE6handleEEEDaS5_, symObjAddr: 0xCCB0, symBinAddr: 0x10000D450, symSize: 0x70 }
  - { offset: 0x2C01D, size: 0x8, addend: 0x0, symName: __ZZNSt8__format19_Formatting_scannerINS_10_Sink_iterIcEEcE13_M_format_argEmENKUlRT_E_clIPKvEEDaS5_, symObjAddr: 0xCC1C, symBinAddr: 0x10000D3BC, symSize: 0x94 }
  - { offset: 0x2C0C0, size: 0x8, addend: 0x0, symName: __ZZNSt8__format19_Formatting_scannerINS_10_Sink_iterIcEEcE13_M_format_argEmENKUlRT_E_clISt17basic_string_viewIcSt11char_traitsIcEEEEDaS5_, symObjAddr: 0xCB74, symBinAddr: 0x10000D314, symSize: 0xA8 }
  - { offset: 0x2C18D, size: 0x8, addend: 0x0, symName: __ZZNSt8__format19_Formatting_scannerINS_10_Sink_iterIcEEcE13_M_format_argEmENKUlRT_E_clIPKcEEDaS5_, symObjAddr: 0xCAD4, symBinAddr: 0x10000D274, symSize: 0xA0 }
  - { offset: 0x2C25A, size: 0x8, addend: 0x0, symName: __ZZNSt8__format19_Formatting_scannerINS_10_Sink_iterIcEEcE13_M_format_argEmENKUlRT_E_clIeEEDaS5_, symObjAddr: 0xCA30, symBinAddr: 0x10000D1D0, symSize: 0xA4 }
  - { offset: 0x2C327, size: 0x8, addend: 0x0, symName: __ZZNSt8__format19_Formatting_scannerINS_10_Sink_iterIcEEcE13_M_format_argEmENKUlRT_E_clIdEEDaS5_, symObjAddr: 0xC98C, symBinAddr: 0x10000D12C, symSize: 0xA4 }
  - { offset: 0x2C3F4, size: 0x8, addend: 0x0, symName: __ZZNSt8__format19_Formatting_scannerINS_10_Sink_iterIcEEcE13_M_format_argEmENKUlRT_E_clIfEEDaS5_, symObjAddr: 0xC8E8, symBinAddr: 0x10000D088, symSize: 0xA4 }
  - { offset: 0x2C4C1, size: 0x8, addend: 0x0, symName: __ZZNSt8__format19_Formatting_scannerINS_10_Sink_iterIcEEcE13_M_format_argEmENKUlRT_E_clIyEEDaS5_, symObjAddr: 0xC848, symBinAddr: 0x10000CFE8, symSize: 0xA0 }
  - { offset: 0x2C58E, size: 0x8, addend: 0x0, symName: __ZZNSt8__format19_Formatting_scannerINS_10_Sink_iterIcEEcE13_M_format_argEmENKUlRT_E_clIxEEDaS5_, symObjAddr: 0xC7A8, symBinAddr: 0x10000CF48, symSize: 0xA0 }
  - { offset: 0x2C65B, size: 0x8, addend: 0x0, symName: __ZZNSt8__format19_Formatting_scannerINS_10_Sink_iterIcEEcE13_M_format_argEmENKUlRT_E_clIjEEDaS5_, symObjAddr: 0xC708, symBinAddr: 0x10000CEA8, symSize: 0xA0 }
  - { offset: 0x2C728, size: 0x8, addend: 0x0, symName: __ZZNSt8__format19_Formatting_scannerINS_10_Sink_iterIcEEcE13_M_format_argEmENKUlRT_E_clIiEEDaS5_, symObjAddr: 0xC668, symBinAddr: 0x10000CE08, symSize: 0xA0 }
  - { offset: 0x2C7F5, size: 0x8, addend: 0x0, symName: __ZZNSt8__format19_Formatting_scannerINS_10_Sink_iterIcEEcE13_M_format_argEmENKUlRT_E_clIcEEDaS5_, symObjAddr: 0xC5D4, symBinAddr: 0x10000CD74, symSize: 0x94 }
  - { offset: 0x2C898, size: 0x8, addend: 0x0, symName: __ZZNSt8__format19_Formatting_scannerINS_10_Sink_iterIcEEcE13_M_format_argEmENKUlRT_E_clIbEEDaS5_, symObjAddr: 0xC534, symBinAddr: 0x10000CCD4, symSize: 0xA0 }
  - { offset: 0x2C965, size: 0x8, addend: 0x0, symName: __ZZNSt8__format19_Formatting_scannerINS_10_Sink_iterIcEEcE13_M_format_argEmENKUlRT_E_clISt9monostateEEDaS5_, symObjAddr: 0xC520, symBinAddr: 0x10000CCC0, symSize: 0x14 }
  - { offset: 0x2C9D0, size: 0x8, addend: 0x0, symName: __ZNSt8__format18__visit_format_argIZNS_19_Formatting_scannerINS_10_Sink_iterIcEEcE13_M_format_argEmEUlRT_E_St20basic_format_contextIS3_cEEEDcOS5_St16basic_format_argIT0_E, symObjAddr: 0xD124, symBinAddr: 0x10000D8C4, symSize: 0x44 }
  - { offset: 0x2CA45, size: 0x8, addend: 0x0, symName: __ZNSt16basic_format_argISt20basic_format_contextINSt8__format10_Sink_iterIcEEcEE8_M_visitIZNS1_19_Formatting_scannerIS3_cE13_M_format_argEmEUlRT_E_EEDcOS9_NS1_6_Arg_tE, symObjAddr: 0xCE80, symBinAddr: 0x10000D620, symSize: 0x2A4 }
  - { offset: 0x2CD1A, size: 0x8, addend: 0x0, symName: __ZNSt8__format19_Formatting_scannerINS_10_Sink_iterIcEEcE11_M_on_charsEPKc, symObjAddr: 0xC4BC, symBinAddr: 0x10000CC5C, symSize: 0x64 }
  - { offset: 0x2CD62, size: 0x8, addend: 0x0, symName: __Z41__static_initialization_and_destruction_0v, symObjAddr: 0x1E328, symBinAddr: 0x100018A9C, symSize: 0x3C }
  - { offset: 0x2CD7E, size: 0x8, addend: 0x0, symName: __ZNK9__gnu_cxx16__aligned_bufferISt4pairIKNSt7__cxx1112basic_stringIcSt11char_traitsIcESaIcEEEdEE7_M_addrEv, symObjAddr: 0xC4A8, symBinAddr: 0x10000CC48, symSize: 0x14 }
  - { offset: 0x2CDBE, size: 0x8, addend: 0x0, symName: __ZNK9__gnu_cxx16__aligned_bufferISt4pairIKNSt7__cxx1112basic_stringIcSt11char_traitsIcESaIcEEEdEE6_M_ptrEv, symObjAddr: 0xC48C, symBinAddr: 0x10000CC2C, symSize: 0x1C }
  - { offset: 0x2CDE8, size: 0x8, addend: 0x0, symName: __ZNSt7__cxx1112basic_stringIcSt11char_traitsIcESaIcEE12_M_constructILb1EEEvPKcm, symObjAddr: 0xC3AC, symBinAddr: 0x10000CB4C, symSize: 0xE0 }
  - { offset: 0x2CEBF, size: 0x8, addend: 0x0, symName: __ZSteqIcSt11char_traitsIcESaIcEEbRKNSt7__cxx1112basic_stringIT_T0_T1_EESA_, symObjAddr: 0xC32C, symBinAddr: 0x10000CACC, symSize: 0x80 }
  - { offset: 0x2CF7B, size: 0x8, addend: 0x0, symName: __ZNSt7__cxx1112basic_stringIcSt11char_traitsIcESaIcEEC1ERKS4_, symObjAddr: 0xC264, symBinAddr: 0x10000CA04, symSize: 0xC8 }
  - { offset: 0x2D06D, size: 0x8, addend: 0x0, symName: __ZNSt15__new_allocatorINSt8__detail10_Hash_nodeISt4pairIKNSt7__cxx1112basic_stringIcSt11char_traitsIcESaIcEEEdELb1EEEE8allocateEmPKv, symObjAddr: 0xC1CC, symBinAddr: 0x10000C96C, symSize: 0x98 }
  - { offset: 0x2D0E3, size: 0x8, addend: 0x0, symName: __ZNSt15__new_allocatorIPNSt8__detail15_Hash_node_baseEE8allocateEmPKv, symObjAddr: 0xC150, symBinAddr: 0x10000C8F0, symSize: 0x7C }
  - { offset: 0x2D159, size: 0x8, addend: 0x0, symName: __ZNKSt8__detail15_Hash_code_baseINSt7__cxx1112basic_stringIcSt11char_traitsIcESaIcEEESt4pairIKS6_dENS_10_Select1stESt4hashIS6_ENS_18_Mod_range_hashingENS_20_Default_ranged_hashELb1EE15_M_bucket_indexERKNS_16_Hash_node_valueIS9_Lb1EEEm, symObjAddr: 0xC120, symBinAddr: 0x10000C8C0, symSize: 0x30 }
  - { offset: 0x2D1C3, size: 0x8, addend: 0x0, symName: __ZNKSt10_HashtableINSt7__cxx1112basic_stringIcSt11char_traitsIcESaIcEEESt4pairIKS5_dESaIS8_ENSt8__detail10_Select1stESt8equal_toIS5_ESt4hashIS5_ENSA_18_Mod_range_hashingENSA_20_Default_ranged_hashENSA_20_Prime_rehash_policyENSA_17_Hashtable_traitsILb1ELb0ELb1EEEE15_M_bucket_indexERKNSA_16_Hash_node_valueIS8_Lb1EEE, symObjAddr: 0xC0F0, symBinAddr: 0x10000C890, symSize: 0x30 }
  - { offset: 0x2D1FE, size: 0x8, addend: 0x0, symName: __ZNKSt8__detail15_Hashtable_baseINSt7__cxx1112basic_stringIcSt11char_traitsIcESaIcEEESt4pairIKS6_dENS_10_Select1stESt8equal_toIS6_ESt4hashIS6_ENS_18_Mod_range_hashingENS_20_Default_ranged_hashENS_17_Hashtable_traitsILb1ELb0ELb1EEEE9_M_equalsERS8_mRKNS_16_Hash_node_valueIS9_Lb1EEE, symObjAddr: 0xC0A0, symBinAddr: 0x10000C840, symSize: 0x50 }
  - { offset: 0x2D25B, size: 0x8, addend: 0x0, symName: __ZNKSt8__detail15_Hash_code_baseINSt7__cxx1112basic_stringIcSt11char_traitsIcESaIcEEESt4pairIKS6_dENS_10_Select1stESt4hashIS6_ENS_18_Mod_range_hashingENS_20_Default_ranged_hashELb1EE15_M_bucket_indexEmm, symObjAddr: 0xC074, symBinAddr: 0x10000C814, symSize: 0x2C }
  - { offset: 0x2D2A7, size: 0x8, addend: 0x0, symName: __ZNKSt15__str_hash_baseIcSaIcENSt7__cxx1112basic_stringIcSt11char_traitsIcES0_EEEclERKS5_, symObjAddr: 0xC02C, symBinAddr: 0x10000C7CC, symSize: 0x48 }
  - { offset: 0x2D2E2, size: 0x8, addend: 0x0, symName: __ZNKSt8equal_toINSt7__cxx1112basic_stringIcSt11char_traitsIcESaIcEEEEclERKS5_S8_, symObjAddr: 0xC004, symBinAddr: 0x10000C7A4, symSize: 0x28 }
  - { offset: 0x2D344, size: 0x8, addend: 0x0, symName: __ZNKSt8__detail15_Hashtable_baseINSt7__cxx1112basic_stringIcSt11char_traitsIcESaIcEEESt4pairIKS6_dENS_10_Select1stESt8equal_toIS6_ESt4hashIS6_ENS_18_Mod_range_hashingENS_20_Default_ranged_hashENS_17_Hashtable_traitsILb1ELb0ELb1EEEE5_M_eqEv, symObjAddr: 0xBFF0, symBinAddr: 0x10000C790, symSize: 0x14 }
  - { offset: 0x2D388, size: 0x8, addend: 0x0, symName: __ZNSt8__detail22_Hashtable_hash_traitsISt4hashINSt7__cxx1112basic_stringIcSt11char_traitsIcESaIcEEEEE22__small_size_thresholdEv, symObjAddr: 0xBFE8, symBinAddr: 0x10000C788, symSize: 0x8 }
  - { offset: 0x2D3A0, size: 0x8, addend: 0x0, symName: __ZSt12construct_atISt4pairIKNSt7__cxx1112basic_stringIcSt11char_traitsIcESaIcEEEdEJRKS8_EQaant20is_unbounded_array_vIT_ErqXgsnwcvPvLi0E_SB_pispcl7declvalIT0_EEEEEPSB_SE_DpOSD_, symObjAddr: 0xBF3C, symBinAddr: 0x10000C6DC, symSize: 0xAC }
  - { offset: 0x2D446, size: 0x8, addend: 0x0, symName: __ZNSt4pairIKNSt7__cxx1112basic_stringIcSt11char_traitsIcESaIcEEEdEC1ERKS7_, symObjAddr: 0xBF04, symBinAddr: 0x10000C6A4, symSize: 0x38 }
  - { offset: 0x2D4D6, size: 0x8, addend: 0x0, symName: __ZNSt5arrayIDiLm1EEixEm, symObjAddr: 0xBE94, symBinAddr: 0x10000C634, symSize: 0x70 }
  - { offset: 0x2D550, size: 0x8, addend: 0x0, symName: __ZNSt15__new_allocatorIPNSt8__detail15_Hash_node_baseEE10deallocateEPS2_m, symObjAddr: 0xBE64, symBinAddr: 0x10000C604, symSize: 0x30 }
  - { offset: 0x2D5BE, size: 0x8, addend: 0x0, symName: __ZNSt15__new_allocatorINSt8__detail10_Hash_nodeISt4pairIKNSt7__cxx1112basic_stringIcSt11char_traitsIcESaIcEEEdELb1EEEE10deallocateEPSB_m, symObjAddr: 0xBE28, symBinAddr: 0x10000C5C8, symSize: 0x3C }
  - { offset: 0x2D650, size: 0x8, addend: 0x0, symName: __ZNSt10_HashtableINSt7__cxx1112basic_stringIcSt11char_traitsIcESaIcEEESt4pairIKS5_dESaIS8_ENSt8__detail10_Select1stESt8equal_toIS5_ESt4hashIS5_ENSA_18_Mod_range_hashingENSA_20_Default_ranged_hashENSA_20_Prime_rehash_policyENSA_17_Hashtable_traitsILb1ELb0ELb1EEEE22_M_insert_bucket_beginEmPNSA_10_Hash_nodeIS8_Lb1EEE, symObjAddr: 0xBD1C, symBinAddr: 0x10000C4BC, symSize: 0x10C }
  - { offset: 0x2D69C, size: 0x8, addend: 0x0, symName: __ZNKSt10_HashtableINSt7__cxx1112basic_stringIcSt11char_traitsIcESaIcEEESt4pairIKS5_dESaIS8_ENSt8__detail10_Select1stESt8equal_toIS5_ESt4hashIS5_ENSA_18_Mod_range_hashingENSA_20_Default_ranged_hashENSA_20_Prime_rehash_policyENSA_17_Hashtable_traitsILb1ELb0ELb1EEEE13_M_store_codeERNSA_16_Hash_node_valueIS8_Lb1EEEm, symObjAddr: 0xBCF4, symBinAddr: 0x10000C494, symSize: 0x28 }
  - { offset: 0x2D6E8, size: 0x8, addend: 0x0, symName: __ZNSt10_HashtableINSt7__cxx1112basic_stringIcSt11char_traitsIcESaIcEEESt4pairIKS5_dESaIS8_ENSt8__detail10_Select1stESt8equal_toIS5_ESt4hashIS5_ENSA_18_Mod_range_hashingENSA_20_Default_ranged_hashENSA_20_Prime_rehash_policyENSA_17_Hashtable_traitsILb1ELb0ELb1EEEE9_M_rehashEmSt17integral_constantIbLb1EE, symObjAddr: 0xBB88, symBinAddr: 0x10000C328, symSize: 0x16C }
  - { offset: 0x2D7AF, size: 0x8, addend: 0x0, symName: __ZNSt8__detail17_RehashStateGuardINS_20_Prime_rehash_policyEED1Ev, symObjAddr: 0xBB44, symBinAddr: 0x10000C2E4, symSize: 0x44 }
  - { offset: 0x2D7FD, size: 0x8, addend: 0x0, symName: __ZNSt8__detail17_RehashStateGuardINS_20_Prime_rehash_policyEEC1ERS1_, symObjAddr: 0xBB00, symBinAddr: 0x10000C2A0, symSize: 0x44 }
  - { offset: 0x2D87A, size: 0x8, addend: 0x0, symName: __ZNKSt10_HashtableINSt7__cxx1112basic_stringIcSt11char_traitsIcESaIcEEESt4pairIKS5_dESaIS8_ENSt8__detail10_Select1stESt8equal_toIS5_ESt4hashIS5_ENSA_18_Mod_range_hashingENSA_20_Default_ranged_hashENSA_20_Prime_rehash_policyENSA_17_Hashtable_traitsILb1ELb0ELb1EEEE19_M_find_before_nodeEmRS7_m, symObjAddr: 0xB9D4, symBinAddr: 0x10000C174, symSize: 0x12C }
  - { offset: 0x2D90C, size: 0x8, addend: 0x0, symName: __ZNKSt10_HashtableINSt7__cxx1112basic_stringIcSt11char_traitsIcESaIcEEESt4pairIKS5_dESaIS8_ENSt8__detail10_Select1stESt8equal_toIS5_ESt4hashIS5_ENSA_18_Mod_range_hashingENSA_20_Default_ranged_hashENSA_20_Prime_rehash_policyENSA_17_Hashtable_traitsILb1ELb0ELb1EEEE15_M_bucket_indexEm, symObjAddr: 0xB9A4, symBinAddr: 0x10000C144, symSize: 0x30 }
  - { offset: 0x2D947, size: 0x8, addend: 0x0, symName: __ZNKSt8__detail15_Hash_code_baseINSt7__cxx1112basic_stringIcSt11char_traitsIcESaIcEEESt4pairIKS6_dENS_10_Select1stESt4hashIS6_ENS_18_Mod_range_hashingENS_20_Default_ranged_hashELb1EE12_M_hash_codeERS8_, symObjAddr: 0xB980, symBinAddr: 0x10000C120, symSize: 0x24 }
  - { offset: 0x2D982, size: 0x8, addend: 0x0, symName: __ZNKSt8__detail15_Hashtable_baseINSt7__cxx1112basic_stringIcSt11char_traitsIcESaIcEEESt4pairIKS6_dENS_10_Select1stESt8equal_toIS6_ESt4hashIS6_ENS_18_Mod_range_hashingENS_20_Default_ranged_hashENS_17_Hashtable_traitsILb1ELb0ELb1EEEE13_M_key_equalsERS8_RKNS_16_Hash_node_valueIS9_Lb1EEE, symObjAddr: 0xB914, symBinAddr: 0x10000C0B4, symSize: 0x6C }
  - { offset: 0x2DA16, size: 0x8, addend: 0x0, symName: __ZNKSt10_HashtableINSt7__cxx1112basic_stringIcSt11char_traitsIcESaIcEEESt4pairIKS5_dESaIS8_ENSt8__detail10_Select1stESt8equal_toIS5_ESt4hashIS5_ENSA_18_Mod_range_hashingENSA_20_Default_ranged_hashENSA_20_Prime_rehash_policyENSA_17_Hashtable_traitsILb1ELb0ELb1EEEE15__location_type7_M_nodeEv, symObjAddr: 0xB8E0, symBinAddr: 0x10000C080, symSize: 0x34 }
  - { offset: 0x2DA3C, size: 0x8, addend: 0x0, symName: __ZNSt19__ptr_traits_ptr_toIPNSt8__detail15_Hash_node_baseES1_Lb0EE10pointer_toERS1_, symObjAddr: 0xB8B8, symBinAddr: 0x10000C058, symSize: 0x28 }
  - { offset: 0x2DAAB, size: 0x8, addend: 0x0, symName: __ZNSt10_HashtableINSt7__cxx1112basic_stringIcSt11char_traitsIcESaIcEEESt4pairIKS5_dESaIS8_ENSt8__detail10_Select1stESt8equal_toIS5_ESt4hashIS5_ENSA_18_Mod_range_hashingENSA_20_Default_ranged_hashENSA_20_Prime_rehash_policyENSA_17_Hashtable_traitsILb1ELb0ELb1EEEE22__small_size_thresholdEv, symObjAddr: 0xB8A4, symBinAddr: 0x10000C044, symSize: 0x14 }
  - { offset: 0x2DAC7, size: 0x8, addend: 0x0, symName: __ZNKSt10_HashtableINSt7__cxx1112basic_stringIcSt11char_traitsIcESaIcEEESt4pairIKS5_dESaIS8_ENSt8__detail10_Select1stESt8equal_toIS5_ESt4hashIS5_ENSA_18_Mod_range_hashingENSA_20_Default_ranged_hashENSA_20_Prime_rehash_policyENSA_17_Hashtable_traitsILb1ELb0ELb1EEEE4sizeEv, symObjAddr: 0xB88C, symBinAddr: 0x10000C02C, symSize: 0x18 }
  - { offset: 0x2DC56, size: 0x8, addend: 0x0, symName: __ZNSt8__detail15_Hash_code_baseINSt7__cxx1112basic_stringIcSt11char_traitsIcESaIcEEESt4pairIKS6_dENS_10_Select1stESt4hashIS6_ENS_18_Mod_range_hashingENS_20_Default_ranged_hashELb1EEC2ERKSC_, symObjAddr: 0xB874, symBinAddr: 0x10000C014, symSize: 0x18 }
  - { offset: 0x2DCAD, size: 0x8, addend: 0x0, symName: __ZSt9__advanceIPKclEvRT_T0_St26random_access_iterator_tag, symObjAddr: 0xB840, symBinAddr: 0x10000BFE0, symSize: 0x34 }
  - { offset: 0x2DD05, size: 0x8, addend: 0x0, symName: __ZNSt9__unicode13_Utf_iteratorIcDiPKcS2_NS_5_ReplEE9_M_updateEDih, symObjAddr: 0xB7E0, symBinAddr: 0x10000BF80, symSize: 0x60 }
  - { offset: 0x2DD51, size: 0x8, addend: 0x0, symName: __ZNSt9__unicode13_Utf_iteratorIcDiPKcS2_NS_5_ReplEE8_S_errorEv, symObjAddr: 0xB770, symBinAddr: 0x10000BF10, symSize: 0x70 }
  - { offset: 0x2DDC3, size: 0x8, addend: 0x0, symName: __ZNSt9__unicode13_Utf_iteratorIcDiPKcS2_NS_5_ReplEE6_GuardIS2_ED1Ev, symObjAddr: 0xB72C, symBinAddr: 0x10000BECC, symSize: 0x44 }
  - { offset: 0x2DF68, size: 0x8, addend: 0x0, symName: __ZNSt4pairINSt8__detail14_Node_iteratorIS_IKNSt7__cxx1112basic_stringIcSt11char_traitsIcESaIcEEEdELb0ELb1EEEbEC1IRSA_bEEOT_OT0_, symObjAddr: 0xB6E0, symBinAddr: 0x10000BE80, symSize: 0x4C }
  - { offset: 0x2DFFA, size: 0x8, addend: 0x0, symName: __ZNSt10_HashtableINSt7__cxx1112basic_stringIcSt11char_traitsIcESaIcEEESt4pairIKS5_dESaIS8_ENSt8__detail10_Select1stESt8equal_toIS5_ESt4hashIS5_ENSA_18_Mod_range_hashingENSA_20_Default_ranged_hashENSA_20_Prime_rehash_policyENSA_17_Hashtable_traitsILb1ELb0ELb1EEEE21_M_insert_unique_nodeEmmPNSA_10_Hash_nodeIS8_Lb1EEEm, symObjAddr: 0xB5D0, symBinAddr: 0x10000BD70, symSize: 0x110 }
  - { offset: 0x2E0D5, size: 0x8, addend: 0x0, symName: __ZNSt4pairINSt8__detail14_Node_iteratorIS_IKNSt7__cxx1112basic_stringIcSt11char_traitsIcESaIcEEEdELb0ELb1EEEbEC1ISA_bEEOT_OT0_, symObjAddr: 0xB584, symBinAddr: 0x10000BD24, symSize: 0x4C }
  - { offset: 0x2E167, size: 0x8, addend: 0x0, symName: __ZNKSt10_HashtableINSt7__cxx1112basic_stringIcSt11char_traitsIcESaIcEEESt4pairIKS5_dESaIS8_ENSt8__detail10_Select1stESt8equal_toIS5_ESt4hashIS5_ENSA_18_Mod_range_hashingENSA_20_Default_ranged_hashENSA_20_Prime_rehash_policyENSA_17_Hashtable_traitsILb1ELb0ELb1EEEE15__location_typecvNSA_14_Node_iteratorIS8_Lb0ELb1EEEEv, symObjAddr: 0xB558, symBinAddr: 0x10000BCF8, symSize: 0x2C }
  - { offset: 0x2E191, size: 0x8, addend: 0x0, symName: __ZNKSt10_HashtableINSt7__cxx1112basic_stringIcSt11char_traitsIcESaIcEEESt4pairIKS5_dESaIS8_ENSt8__detail10_Select1stESt8equal_toIS5_ESt4hashIS5_ENSA_18_Mod_range_hashingENSA_20_Default_ranged_hashENSA_20_Prime_rehash_policyENSA_17_Hashtable_traitsILb1ELb0ELb1EEEE15__location_typecvbEv, symObjAddr: 0xB534, symBinAddr: 0x10000BCD4, symSize: 0x24 }
  - { offset: 0x2E1BB, size: 0x8, addend: 0x0, symName: __ZNKSt10_HashtableINSt7__cxx1112basic_stringIcSt11char_traitsIcESaIcEEESt4pairIKS5_dESaIS8_ENSt8__detail10_Select1stESt8equal_toIS5_ESt4hashIS5_ENSA_18_Mod_range_hashingENSA_20_Default_ranged_hashENSA_20_Prime_rehash_policyENSA_17_Hashtable_traitsILb1ELb0ELb1EEEE9_M_locateERS7_, symObjAddr: 0xB3FC, symBinAddr: 0x10000BB9C, symSize: 0x138 }
  - { offset: 0x2E224, size: 0x8, addend: 0x0, symName: __ZNKSt8__detail10_Select1stclIRSt4pairIKNSt7__cxx1112basic_stringIcSt11char_traitsIcESaIcEEEdEEEONS0_10__1st_typeIT_E4typeEOSD_, symObjAddr: 0xB3DC, symBinAddr: 0x10000BB7C, symSize: 0x20 }
  - { offset: 0x2E28A, size: 0x8, addend: 0x0, symName: __ZNSt8__detail16_Hashtable_allocISaINS_10_Hash_nodeISt4pairIKNSt7__cxx1112basic_stringIcSt11char_traitsIcESaIcEEEdELb1EEEEE16_M_allocate_nodeIJRKSA_EEEPSB_DpOT_, symObjAddr: 0xB1D0, symBinAddr: 0x10000B970, symSize: 0x20C }
  - { offset: 0x2E511, size: 0x8, addend: 0x0, symName: __ZNSt8__detail10_Hash_nodeISt4pairIKNSt7__cxx1112basic_stringIcSt11char_traitsIcESaIcEEEdELb1EEC1Ev, symObjAddr: 0xB1B0, symBinAddr: 0x10000B950, symSize: 0x20 }
  - { offset: 0x2E59A, size: 0x8, addend: 0x0, symName: __ZNSt10_HashtableINSt7__cxx1112basic_stringIcSt11char_traitsIcESaIcEEESt4pairIKS5_dESaIS8_ENSt8__detail10_Select1stESt8equal_toIS5_ESt4hashIS5_ENSA_18_Mod_range_hashingENSA_20_Default_ranged_hashENSA_20_Prime_rehash_policyENSA_17_Hashtable_traitsILb1ELb0ELb1EEEE12_Scoped_nodeD1Ev, symObjAddr: 0xB16C, symBinAddr: 0x10000B90C, symSize: 0x44 }
  - { offset: 0x2E5F6, size: 0x8, addend: 0x0, symName: __ZNSt10_HashtableINSt7__cxx1112basic_stringIcSt11char_traitsIcESaIcEEESt4pairIKS5_dESaIS8_ENSt8__detail10_Select1stESt8equal_toIS5_ESt4hashIS5_ENSA_18_Mod_range_hashingENSA_20_Default_ranged_hashENSA_20_Prime_rehash_policyENSA_17_Hashtable_traitsILb1ELb0ELb1EEEE12_Scoped_nodeC1EPNSA_10_Hash_nodeIS8_Lb1EEEPNSA_16_Hashtable_allocISaISO_EEE, symObjAddr: 0xB138, symBinAddr: 0x10000B8D8, symSize: 0x34 }
  - { offset: 0x2E64C, size: 0x8, addend: 0x0, symName: __ZNKSt8__detail10_Select1stclIRKSt4pairIKNSt7__cxx1112basic_stringIcSt11char_traitsIcESaIcEEEdEEEONS0_10__1st_typeIT_E4typeEOSE_, symObjAddr: 0xB118, symBinAddr: 0x10000B8B8, symSize: 0x20 }
  - { offset: 0x2E6B2, size: 0x8, addend: 0x0, symName: __ZNSt8__detail16_Hashtable_allocISaINS_10_Hash_nodeISt4pairIKNSt7__cxx1112basic_stringIcSt11char_traitsIcESaIcEEEdELb1EEEEE19_M_allocate_bucketsEm, symObjAddr: 0xB010, symBinAddr: 0x10000B7B0, symSize: 0x108 }
  - { offset: 0x2E8AB, size: 0x8, addend: 0x0, symName: __ZNSt27_Enable_default_constructorILb1ENSt8__detail15_Hash_node_baseEEC2ESt31_Enable_default_constructor_tag, symObjAddr: 0xAFF8, symBinAddr: 0x10000B798, symSize: 0x18 }
  - { offset: 0x2E90B, size: 0x8, addend: 0x0, symName: __ZNSt8__detail16_Hashtable_allocISaINS_10_Hash_nodeISt4pairIKNSt7__cxx1112basic_stringIcSt11char_traitsIcESaIcEEEdELb1EEEEEC2ISC_EEOT_, symObjAddr: 0xAFB0, symBinAddr: 0x10000B750, symSize: 0x48 }
  - { offset: 0x2E9F6, size: 0x8, addend: 0x0, symName: __ZNSt8__detail15_Hashtable_baseINSt7__cxx1112basic_stringIcSt11char_traitsIcESaIcEEESt4pairIKS6_dENS_10_Select1stESt8equal_toIS6_ESt4hashIS6_ENS_18_Mod_range_hashingENS_20_Default_ranged_hashENS_17_Hashtable_traitsILb1ELb0ELb1EEEEC2ERKSE_RKSC_, symObjAddr: 0xAF84, symBinAddr: 0x10000B724, symSize: 0x2C }
  - { offset: 0x2EA52, size: 0x8, addend: 0x0, symName: __ZNKSt4lessIPKcEclES1_S1_, symObjAddr: 0xAF30, symBinAddr: 0x10000B6D0, symSize: 0x54 }
  - { offset: 0x2EAD6, size: 0x8, addend: 0x0, symName: __ZNSt15__new_allocatorIcE10deallocateEPcm, symObjAddr: 0xAF08, symBinAddr: 0x10000B6A8, symSize: 0x28 }
  - { offset: 0x2EB20, size: 0x8, addend: 0x0, symName: __ZNSt15__new_allocatorIcE8allocateEmPKv, symObjAddr: 0xAEA4, symBinAddr: 0x10000B644, symSize: 0x64 }
  - { offset: 0x2EB96, size: 0x8, addend: 0x0, symName: __ZNSt15__new_allocatorIiE10deallocateEPim, symObjAddr: 0xAE74, symBinAddr: 0x10000B614, symSize: 0x30 }
  - { offset: 0x2EC37, size: 0x8, addend: 0x0, symName: __ZNSt9__unicode13_Utf_iteratorIcDiPKcS2_NS_5_ReplEE12_M_read_utf8Ev, symObjAddr: 0xA9BC, symBinAddr: 0x10000B15C, symSize: 0x4B8 }
  - { offset: 0x2ED60, size: 0x8, addend: 0x0, symName: __ZZNSt9__unicode13_Utf_iteratorIcDiPKcS2_NS_5_ReplEE12_M_read_utf8EvENKUlvE_clEv, symObjAddr: 0xA974, symBinAddr: 0x10000B114, symSize: 0x48 }
  - { offset: 0x2EE37, size: 0x8, addend: 0x0, symName: __ZNSt16basic_format_argISt20basic_format_contextINSt8__format10_Sink_iterIcEEcEE6_M_setIdEEvT_, symObjAddr: 0xA928, symBinAddr: 0x10000B0C8, symSize: 0x4C }
  - { offset: 0x2EECC, size: 0x8, addend: 0x0, symName: __ZN9__gnu_cxx16__aligned_bufferISt4pairIKNSt7__cxx1112basic_stringIcSt11char_traitsIcESaIcEEEdEE7_M_addrEv, symObjAddr: 0xA914, symBinAddr: 0x10000B0B4, symSize: 0x14 }
  - { offset: 0x2EF5E, size: 0x8, addend: 0x0, symName: __ZNSt19__ptr_traits_ptr_toIPPNSt8__detail15_Hash_node_baseES2_Lb0EE10pointer_toERS2_, symObjAddr: 0xA8EC, symBinAddr: 0x10000B08C, symSize: 0x28 }
  - { offset: 0x2EFFF, size: 0x8, addend: 0x0, symName: __ZNSt19__ptr_traits_ptr_toIPNSt8__detail10_Hash_nodeISt4pairIKNSt7__cxx1112basic_stringIcSt11char_traitsIcESaIcEEEdELb1EEESB_Lb0EE10pointer_toERSB_, symObjAddr: 0xA8C4, symBinAddr: 0x10000B064, symSize: 0x28 }
  - { offset: 0x2F06E, size: 0x8, addend: 0x0, symName: __ZSt10destroy_atISt4pairIKNSt7__cxx1112basic_stringIcSt11char_traitsIcESaIcEEEdEEvPT_, symObjAddr: 0xA8A4, symBinAddr: 0x10000B044, symSize: 0x20 }
  - { offset: 0x2F0A4, size: 0x8, addend: 0x0, symName: __ZNSt10_HashtableINSt7__cxx1112basic_stringIcSt11char_traitsIcESaIcEEESt4pairIKS5_dESaIS8_ENSt8__detail10_Select1stESt8equal_toIS5_ESt4hashIS5_ENSA_18_Mod_range_hashingENSA_20_Default_ranged_hashENSA_20_Prime_rehash_policyENSA_17_Hashtable_traitsILb1ELb0ELb1EEEE15_M_emplace_uniqIJRKS8_EEES6_INSA_14_Node_iteratorIS8_Lb0ELb1EEEbEDpOT_, symObjAddr: 0xA6E4, symBinAddr: 0x10000AE84, symSize: 0x1C0 }
  - { offset: 0x2F295, size: 0x8, addend: 0x0, symName: __ZNSt10_HashtableINSt7__cxx1112basic_stringIcSt11char_traitsIcESaIcEEESt4pairIKS5_dESaIS8_ENSt8__detail10_Select1stESt8equal_toIS5_ESt4hashIS5_ENSA_18_Mod_range_hashingENSA_20_Default_ranged_hashENSA_20_Prime_rehash_policyENSA_17_Hashtable_traitsILb1ELb0ELb1EEEE19_M_allocate_bucketsEm, symObjAddr: 0xA68C, symBinAddr: 0x10000AE2C, symSize: 0x58 }
  - { offset: 0x2F314, size: 0x8, addend: 0x0, symName: __ZNSt10_HashtableINSt7__cxx1112basic_stringIcSt11char_traitsIcESaIcEEESt4pairIKS5_dESaIS8_ENSt8__detail10_Select1stESt8equal_toIS5_ESt4hashIS5_ENSA_18_Mod_range_hashingENSA_20_Default_ranged_hashENSA_20_Prime_rehash_policyENSA_17_Hashtable_traitsILb1ELb0ELb1EEEEC1ERKSF_RKSD_RKS9_, symObjAddr: 0xA5D0, symBinAddr: 0x10000AD70, symSize: 0xBC }
  - { offset: 0x2F3C3, size: 0x8, addend: 0x0, symName: __ZNSt15__new_allocatorIdE10deallocateEPdm, symObjAddr: 0xA5A0, symBinAddr: 0x10000AD40, symSize: 0x30 }
  - { offset: 0x2F44F, size: 0x8, addend: 0x0, symName: __ZNKSt4spanIcLm18446744073709551615EE7subspanEmm, symObjAddr: 0xA424, symBinAddr: 0x10000ABC4, symSize: 0x17C }
  - { offset: 0x2F4D2, size: 0x8, addend: 0x0, symName: __ZNSt7__cxx1112basic_stringIcSt11char_traitsIcESaIcEE9_M_mutateEmmPKcm, symObjAddr: 0xA2CC, symBinAddr: 0x10000AA6C, symSize: 0x158 }
  - { offset: 0x2F578, size: 0x8, addend: 0x0, symName: __ZNSt7__cxx1112basic_stringIcSt11char_traitsIcESaIcEE15_M_replace_coldEPcmPKcmm, symObjAddr: 0xA134, symBinAddr: 0x10000A8D4, symSize: 0x198 }
  - { offset: 0x2F63B, size: 0x8, addend: 0x0, symName: __ZNSt7__cxx1112basic_stringIcSt11char_traitsIcESaIcEE7_S_moveEPcPKcm, symObjAddr: 0xA0E8, symBinAddr: 0x10000A888, symSize: 0x4C }
  - { offset: 0x2F68B, size: 0x8, addend: 0x0, symName: __ZNKSt7__cxx1112basic_stringIcSt11char_traitsIcESaIcEE11_M_disjunctEPKc, symObjAddr: 0xA064, symBinAddr: 0x10000A804, symSize: 0x84 }
  - { offset: 0x2F733, size: 0x8, addend: 0x0, symName: __ZSt10destroy_atIiEvPT_, symObjAddr: 0xA050, symBinAddr: 0x10000A7F0, symSize: 0x14 }
  - { offset: 0x2F765, size: 0x8, addend: 0x0, symName: __ZSt12construct_atIiJRKiEQaant20is_unbounded_array_vIT_ErqXgsnwcvPvLi0E_S2_pispcl7declvalIT0_EEEEEPS2_S5_DpOS4_, symObjAddr: 0x9FE0, symBinAddr: 0x10000A780, symSize: 0x70 }
  - { offset: 0x2F840, size: 0x8, addend: 0x0, symName: __ZNKSt9__unicode13_Utf_iteratorIcDiPKcS2_NS_5_ReplEE7_M_currEv, symObjAddr: 0x9FC8, symBinAddr: 0x10000A768, symSize: 0x18 }
  - { offset: 0x2F86A, size: 0x8, addend: 0x0, symName: __ZNKSt5arrayIDiLm1EEixEm, symObjAddr: 0x9F58, symBinAddr: 0x10000A6F8, symSize: 0x70 }
  - { offset: 0x2F8E4, size: 0x8, addend: 0x0, symName: __ZNSt9__unicode13_Utf_iteratorIcDiPKcS2_NS_5_ReplEEppEv, symObjAddr: 0x9E2C, symBinAddr: 0x10000A5CC, symSize: 0x12C }
  - { offset: 0x2F966, size: 0x8, addend: 0x0, symName: __ZNSt9__unicode13_Utf_iteratorIcDiPKcS2_NS_5_ReplEE7_M_readEv, symObjAddr: 0x9E0C, symBinAddr: 0x10000A5AC, symSize: 0x20 }
  - { offset: 0x2F990, size: 0x8, addend: 0x0, symName: __ZNSt9__unicode13_Utf_iteratorIcDiPKcS2_NS_5_ReplEE7_M_currEv, symObjAddr: 0x9DF4, symBinAddr: 0x10000A594, symSize: 0x18 }
  - { offset: 0x2F9F0, size: 0x8, addend: 0x0, symName: __ZNSt9__unicode13_Utf_iteratorIcDiPKcS2_NS_5_ReplEE15_First_and_currIS2_EC1ES2_S2_, symObjAddr: 0x9DC0, symBinAddr: 0x10000A560, symSize: 0x34 }
  - { offset: 0x2FABE, size: 0x8, addend: 0x0, symName: __ZNSt16basic_format_argISt20basic_format_contextINSt8__format10_Sink_iterIcEEcEEC1IdEERT_, symObjAddr: 0x9D84, symBinAddr: 0x10000A524, symSize: 0x3C }
  - { offset: 0x2FB36, size: 0x8, addend: 0x0, symName: __ZN9__gnu_cxx16__aligned_bufferISt4pairIKNSt7__cxx1112basic_stringIcSt11char_traitsIcESaIcEEEdEE6_M_ptrEv, symObjAddr: 0x9D68, symBinAddr: 0x10000A508, symSize: 0x1C }
  - { offset: 0x2FB88, size: 0x8, addend: 0x0, symName: __ZNSt8__detail19_Node_iterator_baseISt4pairIKNSt7__cxx1112basic_stringIcSt11char_traitsIcESaIcEEEdELb1EEC2EPNS_10_Hash_nodeIS9_Lb1EEE, symObjAddr: 0x9D44, symBinAddr: 0x10000A4E4, symSize: 0x24 }
  - { offset: 0x2FBB7, size: 0x8, addend: 0x0, symName: __ZNSt8__detail16_Hashtable_allocISaINS_10_Hash_nodeISt4pairIKNSt7__cxx1112basic_stringIcSt11char_traitsIcESaIcEEEdELb1EEEEE21_M_deallocate_bucketsEPPNS_15_Hash_node_baseEm, symObjAddr: 0x9CA0, symBinAddr: 0x10000A440, symSize: 0xA4 }
  - { offset: 0x2FD19, size: 0x8, addend: 0x0, symName: __ZNKSt10_HashtableINSt7__cxx1112basic_stringIcSt11char_traitsIcESaIcEEESt4pairIKS5_dESaIS8_ENSt8__detail10_Select1stESt8equal_toIS5_ESt4hashIS5_ENSA_18_Mod_range_hashingENSA_20_Default_ranged_hashENSA_20_Prime_rehash_policyENSA_17_Hashtable_traitsILb1ELb0ELb1EEEE21_M_uses_single_bucketEPPNSA_15_Hash_node_baseE, symObjAddr: 0x9C64, symBinAddr: 0x10000A404, symSize: 0x3C }
  - { offset: 0x2FD54, size: 0x8, addend: 0x0, symName: __ZNSt8__detail16_Hashtable_allocISaINS_10_Hash_nodeISt4pairIKNSt7__cxx1112basic_stringIcSt11char_traitsIcESaIcEEEdELb1EEEEE22_M_deallocate_node_ptrEPSB_, symObjAddr: 0x9BD8, symBinAddr: 0x10000A378, symSize: 0x8C }
  - { offset: 0x2FE54, size: 0x8, addend: 0x0, symName: __ZNSt8__detail16_Hashtable_allocISaINS_10_Hash_nodeISt4pairIKNSt7__cxx1112basic_stringIcSt11char_traitsIcESaIcEEEdELb1EEEEE17_M_node_allocatorEv, symObjAddr: 0x9BC4, symBinAddr: 0x10000A364, symSize: 0x14 }
  - { offset: 0x2FE7E, size: 0x8, addend: 0x0, symName: __ZNSt10_HashtableINSt7__cxx1112basic_stringIcSt11char_traitsIcESaIcEEESt4pairIKS5_dESaIS8_ENSt8__detail10_Select1stESt8equal_toIS5_ESt4hashIS5_ENSA_18_Mod_range_hashingENSA_20_Default_ranged_hashENSA_20_Prime_rehash_policyENSA_17_Hashtable_traitsILb1ELb0ELb1EEEE6insertIPKS8_EEvT_SP_, symObjAddr: 0x9B74, symBinAddr: 0x10000A314, symSize: 0x50 }
  - { offset: 0x2FF36, size: 0x8, addend: 0x0, symName: __ZNSt10_HashtableINSt7__cxx1112basic_stringIcSt11char_traitsIcESaIcEEESt4pairIKS5_dESaIS8_ENSt8__detail10_Select1stESt8equal_toIS5_ESt4hashIS5_ENSA_18_Mod_range_hashingENSA_20_Default_ranged_hashENSA_20_Prime_rehash_policyENSA_17_Hashtable_traitsILb1ELb0ELb1EEEEC1EmRKSF_RKSD_RKS9_, symObjAddr: 0x9ACC, symBinAddr: 0x10000A26C, symSize: 0xA8 }
  - { offset: 0x2FFAD, size: 0x8, addend: 0x0, symName: __ZNKSt16initializer_listISt4pairIKNSt7__cxx1112basic_stringIcSt11char_traitsIcESaIcEEEdEE4sizeEv, symObjAddr: 0x9AB4, symBinAddr: 0x10000A254, symSize: 0x18 }
  - { offset: 0x2FFD3, size: 0x8, addend: 0x0, symName: __ZSt10destroy_atIdEvPT_, symObjAddr: 0x9AA0, symBinAddr: 0x10000A240, symSize: 0x14 }
  - { offset: 0x30005, size: 0x8, addend: 0x0, symName: __ZSt12construct_atIdJRKdEQaant20is_unbounded_array_vIT_ErqXgsnwcvPvLi0E_S2_pispcl7declvalIT0_EEEEEPS2_S5_DpOS4_, symObjAddr: 0x9A30, symBinAddr: 0x10000A1D0, symSize: 0x70 }
  - { offset: 0x300E4, size: 0x8, addend: 0x0, symName: __ZNSt7__cxx1112basic_stringIcSt11char_traitsIcESaIcEE9_M_appendEPKcm, symObjAddr: 0x9968, symBinAddr: 0x10000A108, symSize: 0xC8 }
  - { offset: 0x30141, size: 0x8, addend: 0x0, symName: __ZNKSt7__cxx1112basic_stringIcSt11char_traitsIcESaIcEE15_M_check_lengthEmmPKc, symObjAddr: 0x98F4, symBinAddr: 0x10000A094, symSize: 0x74 }
  - { offset: 0x301DB, size: 0x8, addend: 0x0, symName: __ZNSt4spanIcLm18446744073709551615EEC1IPcEET_m, symObjAddr: 0x98A0, symBinAddr: 0x10000A040, symSize: 0x54 }
  - { offset: 0x302A5, size: 0x8, addend: 0x0, symName: __ZNSt8__format5_SinkIcE7_M_bumpEm, symObjAddr: 0x985C, symBinAddr: 0x100009FFC, symSize: 0x44 }
  - { offset: 0x30339, size: 0x8, addend: 0x0, symName: __ZNKSt17basic_format_argsISt20basic_format_contextINSt8__format10_Sink_iterIcEEcEE7_M_typeEm, symObjAddr: 0x9810, symBinAddr: 0x100009FB0, symSize: 0x4C }
  - { offset: 0x303B9, size: 0x8, addend: 0x0, symName: __ZNKSt17integral_constantImLm256EEcvmEv, symObjAddr: 0x97FC, symBinAddr: 0x100009F9C, symSize: 0x14 }
  - { offset: 0x303E3, size: 0x8, addend: 0x0, symName: __ZNSt17basic_string_viewIcSt11char_traitsIcEE13remove_suffixEm, symObjAddr: 0x9784, symBinAddr: 0x100009F24, symSize: 0x78 }
  - { offset: 0x30424, size: 0x8, addend: 0x0, symName: __ZNSt17basic_string_viewIcSt11char_traitsIcEE10_S_compareEmm, symObjAddr: 0x972C, symBinAddr: 0x100009ECC, symSize: 0x58 }
  - { offset: 0x30476, size: 0x8, addend: 0x0, symName: __ZSt9__advanceIPKjlEvRT_T0_St26random_access_iterator_tag, symObjAddr: 0x96F4, symBinAddr: 0x100009E94, symSize: 0x38 }
  - { offset: 0x30516, size: 0x8, addend: 0x0, symName: __ZSt9__advanceIPKDilEvRT_T0_St26random_access_iterator_tag, symObjAddr: 0x96BC, symBinAddr: 0x100009E5C, symSize: 0x38 }
  - { offset: 0x3056A, size: 0x8, addend: 0x0, symName: __ZSt13__countl_zeroImEiT_, symObjAddr: 0x969C, symBinAddr: 0x100009E3C, symSize: 0x20 }
  - { offset: 0x305B0, size: 0x8, addend: 0x0, symName: __ZNKSt7__cxx1112basic_stringIcSt11char_traitsIcESaIcEE8_M_checkEmPKc, symObjAddr: 0x9624, symBinAddr: 0x100009DC4, symSize: 0x78 }
  - { offset: 0x30600, size: 0x8, addend: 0x0, symName: __ZNSt7__cxx1112basic_stringIcSt11char_traitsIcESaIcEE10_M_replaceEmmPKcm, symObjAddr: 0x93B4, symBinAddr: 0x100009B54, symSize: 0x270 }
  - { offset: 0x3077F, size: 0x8, addend: 0x0, symName: __ZNSt19__ptr_traits_ptr_toIPKcS0_Lb0EE10pointer_toERS0_, symObjAddr: 0x938C, symBinAddr: 0x100009B2C, symSize: 0x28 }
  - { offset: 0x30844, size: 0x8, addend: 0x0, symName: __ZSt8_DestroyIPiEvT_S1_, symObjAddr: 0x9330, symBinAddr: 0x100009AD0, symSize: 0x5C }
  - { offset: 0x30904, size: 0x8, addend: 0x0, symName: __ZNSt19_UninitDestroyGuardIPivE7releaseEv, symObjAddr: 0x9314, symBinAddr: 0x100009AB4, symSize: 0x1C }
  - { offset: 0x3092A, size: 0x8, addend: 0x0, symName: __ZSt10_ConstructIiJRKiEEvPT_DpOT0_, symObjAddr: 0x928C, symBinAddr: 0x100009A2C, symSize: 0x88 }
  - { offset: 0x30A15, size: 0x8, addend: 0x0, symName: __ZNSt19_UninitDestroyGuardIPivED1Ev, symObjAddr: 0x9234, symBinAddr: 0x1000099D4, symSize: 0x58 }
  - { offset: 0x30A69, size: 0x8, addend: 0x0, symName: __ZNSt8__format5_SpecIcE8_S_alignEc, symObjAddr: 0x91E0, symBinAddr: 0x100009980, symSize: 0x54 }
  - { offset: 0x30A97, size: 0x8, addend: 0x0, symName: __ZNKSt9__unicode13_Utf_iteratorIcDiPKcS2_NS_5_ReplEE4baseEvQ16forward_iteratorIT1_E, symObjAddr: 0x91C4, symBinAddr: 0x100009964, symSize: 0x1C }
  - { offset: 0x30AC1, size: 0x8, addend: 0x0, symName: __ZNKSt9__unicode13_Utf_iteratorIcDiPKcS2_NS_5_ReplEEdeEv, symObjAddr: 0x9190, symBinAddr: 0x100009930, symSize: 0x34 }
  - { offset: 0x30AEB, size: 0x8, addend: 0x0, symName: __ZNSt9__unicode13_Utf_iteratorIcDiPKcS2_NS_5_ReplEEppEi, symObjAddr: 0x9148, symBinAddr: 0x1000098E8, symSize: 0x48 }
  - { offset: 0x30B6F, size: 0x8, addend: 0x0, symName: __ZNSt9__unicode13_Utf_iteratorIcDiPKcS2_NS_5_ReplEEC1ES2_S2_S2_Q22bidirectional_iteratorIT1_E, symObjAddr: 0x90AC, symBinAddr: 0x10000984C, symSize: 0x9C }
  - { offset: 0x30BD8, size: 0x8, addend: 0x0, symName: __ZNSt9__unicode9_Utf_viewIDiNSt6ranges8subrangeIPKcS4_LNS1_13subrange_kindE1EEEEC1EOS6_, symObjAddr: 0x907C, symBinAddr: 0x10000981C, symSize: 0x30 }
  - { offset: 0x30C6A, size: 0x8, addend: 0x0, symName: __ZNSt6ranges8subrangeIPKcS2_LNS_13subrange_kindE1EEC1IS2_EET_S2_QntL_ZNS0_IS6_T0_XT1_EE13_S_store_sizeEE, symObjAddr: 0x9034, symBinAddr: 0x1000097D4, symSize: 0x48 }
  - { offset: 0x30CF9, size: 0x8, addend: 0x0, symName: __ZNKSt6ranges8subrangeIPKcS2_LNS_13subrange_kindE1EE3endEv, symObjAddr: 0x901C, symBinAddr: 0x1000097BC, symSize: 0x18 }
  - { offset: 0x30D23, size: 0x8, addend: 0x0, symName: __ZNKSt6ranges8subrangeIPKcS2_LNS_13subrange_kindE1EE5beginEvQ8copyableIT_E, symObjAddr: 0x9004, symBinAddr: 0x1000097A4, symSize: 0x18 }
  - { offset: 0x30D91, size: 0x8, addend: 0x0, symName: __ZNSt8__detail15__raise_and_addItEEbRT_ih, symObjAddr: 0x8F28, symBinAddr: 0x1000096C8, symSize: 0xDC }
  - { offset: 0x30DE6, size: 0x8, addend: 0x0, symName: __ZNSt8__format10_Arg_storeISt20basic_format_contextINS_10_Sink_iterIcEEcEJdEE11_S_make_eltIdEENS_10_Arg_valueIS4_EERT_, symObjAddr: 0x8F04, symBinAddr: 0x1000096A4, symSize: 0x24 }
  - { offset: 0x30E6C, size: 0x8, addend: 0x0, symName: __ZNSt8__detail14_Node_iteratorISt4pairIKNSt7__cxx1112basic_stringIcSt11char_traitsIcESaIcEEEdELb0ELb1EEC1EPNS_10_Hash_nodeIS9_Lb1EEE, symObjAddr: 0x8EDC, symBinAddr: 0x10000967C, symSize: 0x28 }
  - { offset: 0x30E9B, size: 0x8, addend: 0x0, symName: __ZNSt10_HashtableINSt7__cxx1112basic_stringIcSt11char_traitsIcESaIcEEESt4pairIKS5_dESaIS8_ENSt8__detail10_Select1stESt8equal_toIS5_ESt4hashIS5_ENSA_18_Mod_range_hashingENSA_20_Default_ranged_hashENSA_20_Prime_rehash_policyENSA_17_Hashtable_traitsILb1ELb0ELb1EEEE21_M_deallocate_bucketsEPPNSA_15_Hash_node_baseEm, symObjAddr: 0x8E90, symBinAddr: 0x100009630, symSize: 0x4C }
  - { offset: 0x30EE7, size: 0x8, addend: 0x0, symName: __ZNSt8__detail16_Hashtable_allocISaINS_10_Hash_nodeISt4pairIKNSt7__cxx1112basic_stringIcSt11char_traitsIcESaIcEEEdELb1EEEEE18_M_deallocate_nodeEPSB_, symObjAddr: 0x8E28, symBinAddr: 0x1000095C8, symSize: 0x68 }
  - { offset: 0x30F73, size: 0x8, addend: 0x0, symName: __ZNKSt8__detail10_Hash_nodeISt4pairIKNSt7__cxx1112basic_stringIcSt11char_traitsIcESaIcEEEdELb1EE7_M_nextEv, symObjAddr: 0x8E10, symBinAddr: 0x1000095B0, symSize: 0x18 }
  - { offset: 0x31019, size: 0x8, addend: 0x0, symName: __ZNSt10_HashtableINSt7__cxx1112basic_stringIcSt11char_traitsIcESaIcEEESt4pairIKS5_dESaIS8_ENSt8__detail10_Select1stESt8equal_toIS5_ESt4hashIS5_ENSA_18_Mod_range_hashingENSA_20_Default_ranged_hashENSA_20_Prime_rehash_policyENSA_17_Hashtable_traitsILb1ELb0ELb1EEEEC1IPKS8_EET_SP_mRKSF_RKSD_RKS9_St17integral_constantIbLb1EE, symObjAddr: 0x8D98, symBinAddr: 0x100009538, symSize: 0x78 }
  - { offset: 0x31087, size: 0x8, addend: 0x0, symName: __ZNKSt16initializer_listISt4pairIKNSt7__cxx1112basic_stringIcSt11char_traitsIcESaIcEEEdEE3endEv, symObjAddr: 0x8D50, symBinAddr: 0x1000094F0, symSize: 0x48 }
  - { offset: 0x310B1, size: 0x8, addend: 0x0, symName: __ZNKSt16initializer_listISt4pairIKNSt7__cxx1112basic_stringIcSt11char_traitsIcESaIcEEEdEE5beginEv, symObjAddr: 0x8D38, symBinAddr: 0x1000094D8, symSize: 0x18 }
  - { offset: 0x310D7, size: 0x8, addend: 0x0, symName: __ZSt8_DestroyIPdEvT_S1_, symObjAddr: 0x8CDC, symBinAddr: 0x10000947C, symSize: 0x5C }
  - { offset: 0x31197, size: 0x8, addend: 0x0, symName: __ZNSt19_UninitDestroyGuardIPdvE7releaseEv, symObjAddr: 0x8CC0, symBinAddr: 0x100009460, symSize: 0x1C }
  - { offset: 0x311BD, size: 0x8, addend: 0x0, symName: __ZSt10_ConstructIdJRKdEEvPT_DpOT0_, symObjAddr: 0x8C38, symBinAddr: 0x1000093D8, symSize: 0x88 }
  - { offset: 0x312A8, size: 0x8, addend: 0x0, symName: __ZNSt19_UninitDestroyGuardIPdvED1Ev, symObjAddr: 0x8BE0, symBinAddr: 0x100009380, symSize: 0x58 }
  - { offset: 0x31316, size: 0x8, addend: 0x0, symName: __ZNSt7__cxx1112basic_stringIcSt11char_traitsIcESaIcEE6appendEPKcm, symObjAddr: 0x8B9C, symBinAddr: 0x10000933C, symSize: 0x44 }
  - { offset: 0x31362, size: 0x8, addend: 0x0, symName: __ZNKSt4spanIcLm18446744073709551615EE5firstEm, symObjAddr: 0x8B10, symBinAddr: 0x1000092B0, symSize: 0x8C }
  - { offset: 0x313F0, size: 0x8, addend: 0x0, symName: __ZNKSt4spanIcLm18446744073709551615EE5beginEv, symObjAddr: 0x8AE4, symBinAddr: 0x100009284, symSize: 0x2C }
  - { offset: 0x31444, size: 0x8, addend: 0x0, symName: __ZNSt20basic_format_contextINSt8__format10_Sink_iterIcEEcE3outEv, symObjAddr: 0x8AC0, symBinAddr: 0x100009260, symSize: 0x24 }
  - { offset: 0x314C8, size: 0x8, addend: 0x0, symName: __ZNSt8__format19_Formatting_scannerINS_10_Sink_iterIcEEcEC1ERSt20basic_format_contextIS2_cESt17basic_string_viewIcSt11char_traitsIcEE, symObjAddr: 0x8A70, symBinAddr: 0x100009210, symSize: 0x50 }
  - { offset: 0x31544, size: 0x8, addend: 0x0, symName: __ZNSt20basic_format_contextINSt8__format10_Sink_iterIcEEcEC1ESt17basic_format_argsIS3_ES2_RKSt6locale, symObjAddr: 0x8A20, symBinAddr: 0x1000091C0, symSize: 0x50 }
  - { offset: 0x315DC, size: 0x8, addend: 0x0, symName: __ZNSt20basic_format_contextINSt8__format10_Sink_iterIcEEcEC1ESt17basic_format_argsIS3_ES2_, symObjAddr: 0x89C8, symBinAddr: 0x100009168, symSize: 0x58 }
  - { offset: 0x31659, size: 0x8, addend: 0x0, symName: __ZNSt8__format5_SinkIcE12_Reservation7_M_bumpEm, symObjAddr: 0x8988, symBinAddr: 0x100009128, symSize: 0x40 }
  - { offset: 0x31694, size: 0x8, addend: 0x0, symName: __ZNKSt8__format5_SinkIcE12_Reservation3getEv, symObjAddr: 0x8960, symBinAddr: 0x100009100, symSize: 0x28 }
  - { offset: 0x316E2, size: 0x8, addend: 0x0, symName: __ZNKSt8__format5_SinkIcE12_ReservationcvbEv, symObjAddr: 0x893C, symBinAddr: 0x1000090DC, symSize: 0x24 }
  - { offset: 0x3170C, size: 0x8, addend: 0x0, symName: __ZNSt8__format5_SinkIcE10_M_reserveEm, symObjAddr: 0x87A8, symBinAddr: 0x100008F48, symSize: 0x194 }
  - { offset: 0x31985, size: 0x8, addend: 0x0, symName: __ZNSt4spanIcLm18446744073709551615EEC1ILm256EEERAT__c, symObjAddr: 0x874C, symBinAddr: 0x100008EEC, symSize: 0x5C }
  - { offset: 0x319EB, size: 0x8, addend: 0x0, symName: __ZNKSt17basic_string_viewIcSt11char_traitsIcEE7compareES2_, symObjAddr: 0x86E4, symBinAddr: 0x100008E84, symSize: 0x68 }
  - { offset: 0x31A48, size: 0x8, addend: 0x0, symName: __ZN9__gnu_cxx5__ops16_Iter_equals_valIKDiEclIPS2_EEbT_, symObjAddr: 0x86B0, symBinAddr: 0x100008E50, symSize: 0x34 }
  - { offset: 0x31AB4, size: 0x8, addend: 0x0, symName: __ZN9__gnu_cxx5__ops16_Iter_equals_valIKDiEC1ERS2_, symObjAddr: 0x868C, symBinAddr: 0x100008E2C, symSize: 0x24 }
  - { offset: 0x31AEF, size: 0x8, addend: 0x0, symName: __ZNK9__gnu_cxx5__ops14_Iter_less_valclIPKjS3_EEbT_RT0_, symObjAddr: 0x8658, symBinAddr: 0x100008DF8, symSize: 0x34 }
  - { offset: 0x31BC3, size: 0x8, addend: 0x0, symName: __ZNK9__gnu_cxx5__ops14_Val_less_iterclIKDiPS3_EEbRT_T0_, symObjAddr: 0x8624, symBinAddr: 0x100008DC4, symSize: 0x34 }
  - { offset: 0x31C5C, size: 0x8, addend: 0x0, symName: __ZSt11__bit_widthImEiT_, symObjAddr: 0x85F4, symBinAddr: 0x100008D94, symSize: 0x30 }
  - { offset: 0x31CCF, size: 0x8, addend: 0x0, symName: __ZNKSt7__cxx1112basic_stringIcSt11char_traitsIcESaIcEE13_M_local_dataEv, symObjAddr: 0x85D4, symBinAddr: 0x100008D74, symSize: 0x20 }
  - { offset: 0x31D1D, size: 0x8, addend: 0x0, symName: __ZNSt7__cxx1112basic_stringIcSt11char_traitsIcESaIcEE10_M_destroyEm, symObjAddr: 0x853C, symBinAddr: 0x100008CDC, symSize: 0x98 }
  - { offset: 0x31DD9, size: 0x8, addend: 0x0, symName: __ZNSt7__cxx1112basic_stringIcSt11char_traitsIcESaIcEE11_S_allocateERS3_m, symObjAddr: 0x84A0, symBinAddr: 0x100008C40, symSize: 0x9C }
  - { offset: 0x31EE5, size: 0x8, addend: 0x0, symName: __ZSt18uninitialized_copyIPKiPiET0_T_S4_S3_, symObjAddr: 0x8424, symBinAddr: 0x100008BC4, symSize: 0x7C }
  - { offset: 0x31FBF, size: 0x8, addend: 0x0, symName: __ZSt16__do_uninit_copyIPKiS1_PiET1_T_T0_S3_, symObjAddr: 0x839C, symBinAddr: 0x100008B3C, symSize: 0x88 }
  - { offset: 0x32081, size: 0x8, addend: 0x0, symName: __ZNSt19_UninitDestroyGuardIPivEC1ERS0_, symObjAddr: 0x8368, symBinAddr: 0x100008B08, symSize: 0x34 }
  - { offset: 0x320B0, size: 0x8, addend: 0x0, symName: __ZNSt12_Vector_baseIiSaIiEE13_M_deallocateEPim, symObjAddr: 0x82DC, symBinAddr: 0x100008A7C, symSize: 0x8C }
  - { offset: 0x3217E, size: 0x8, addend: 0x0, symName: __ZNSt8__format5_SpecIcE27_S_parse_width_or_precisionEPKcS3_RtRbRSt26basic_format_parse_contextIcE, symObjAddr: 0x8130, symBinAddr: 0x1000088D0, symSize: 0x1AC }
  - { offset: 0x32279, size: 0x8, addend: 0x0, symName: __ZNSt8__format5_SpecIcE7_S_signEc, symObjAddr: 0x80E0, symBinAddr: 0x100008880, symSize: 0x50 }
  - { offset: 0x322A7, size: 0x8, addend: 0x0, symName: __ZNSt8__format5_SpecIcE23_M_parse_fill_and_alignEPKcS3_St17basic_string_viewIcSt11char_traitsIcEE, symObjAddr: 0x7F14, symBinAddr: 0x1000086B4, symSize: 0x1CC }
  - { offset: 0x32427, size: 0x8, addend: 0x0, symName: __ZNSt9__unicode9_Utf_viewIDiNSt6ranges8subrangeIPKcS4_LNS1_13subrange_kindE1EEEE5beginEv, symObjAddr: 0x7EB0, symBinAddr: 0x100008650, symSize: 0x64 }
  - { offset: 0x32451, size: 0x8, addend: 0x0, symName: __ZNSt9__unicode9_Utf_viewIDiNSt6ranges8subrangeIPKcS4_LNS1_13subrange_kindE1EEEE8_M_beginIS4_S4_EEDaT_T0_, symObjAddr: 0x7E7C, symBinAddr: 0x10000861C, symSize: 0x34 }
  - { offset: 0x324AF, size: 0x8, addend: 0x0, symName: __ZNKSt6ranges8subrangeIPKcS2_LNS_13subrange_kindE1EE5emptyEv, symObjAddr: 0x7E50, symBinAddr: 0x1000085F0, symSize: 0x2C }
  - { offset: 0x324E5, size: 0x8, addend: 0x0, symName: __ZNKSt6ranges8__access6_EmptyclIRKNS_8subrangeIPKcS5_LNS_13subrange_kindE1EEEEEbOT_, symObjAddr: 0x7E30, symBinAddr: 0x1000085D0, symSize: 0x20 }
  - { offset: 0x32529, size: 0x8, addend: 0x0, symName: __ZNKSt9__unicode9_Utf_viewIDiNSt6ranges8subrangeIPKcS4_LNS1_13subrange_kindE1EEEE5emptyEv, symObjAddr: 0x7E08, symBinAddr: 0x1000085A8, symSize: 0x28 }
  - { offset: 0x32553, size: 0x8, addend: 0x0, symName: __ZNKSt6ranges8__access4_EndclIRNS_8subrangeIPKcS5_LNS_13subrange_kindE1EEEEEDaOT_, symObjAddr: 0x7DE8, symBinAddr: 0x100008588, symSize: 0x20 }
  - { offset: 0x32596, size: 0x8, addend: 0x0, symName: __ZNKSt6ranges8__access6_BeginclIRNS_8subrangeIPKcS5_LNS_13subrange_kindE1EEEEEDaOT_, symObjAddr: 0x7DC8, symBinAddr: 0x100008568, symSize: 0x20 }
  - { offset: 0x32627, size: 0x8, addend: 0x0, symName: __ZNSt4pairItPKcEC1IRtRS1_EEOT_OT0_, symObjAddr: 0x7D7C, symBinAddr: 0x10000851C, symSize: 0x4C }
  - { offset: 0x326B5, size: 0x8, addend: 0x0, symName: __ZNSt8__detail18__from_chars_alnumILb1EtEEbRPKcS2_RT0_i, symObjAddr: 0x7BFC, symBinAddr: 0x10000839C, symSize: 0x180 }
  - { offset: 0x3276B, size: 0x8, addend: 0x0, symName: __ZNSt8__detail25__from_chars_alnum_to_valILb1EEEhh, symObjAddr: 0x7BE0, symBinAddr: 0x100008380, symSize: 0x1C }
  - { offset: 0x327E8, size: 0x8, addend: 0x0, symName: __ZNSt17basic_format_argsISt20basic_format_contextINSt8__format10_Sink_iterIcEEcEEC1IJdEEERKNS1_10_Arg_storeIS4_JDpT_EEE, symObjAddr: 0x7B80, symBinAddr: 0x100008320, symSize: 0x60 }
  - { offset: 0x32822, size: 0x8, addend: 0x0, symName: __ZNSt16reverse_iteratorIPKNSt8__format6_Arg_tEEppEv, symObjAddr: 0x7B58, symBinAddr: 0x1000082F8, symSize: 0x28 }
  - { offset: 0x3284C, size: 0x8, addend: 0x0, symName: __ZNKSt16reverse_iteratorIPKNSt8__format6_Arg_tEE4baseEv, symObjAddr: 0x7B40, symBinAddr: 0x1000082E0, symSize: 0x18 }
  - { offset: 0x32872, size: 0x8, addend: 0x0, symName: __ZSteqIPKNSt8__format6_Arg_tEEbRKSt16reverse_iteratorIT_ES8_QrqXeqcldtfL0p_4baseEcldtfL0p0_4baseERSt14convertible_toIbEE, symObjAddr: 0x7B00, symBinAddr: 0x1000082A0, symSize: 0x40 }
  - { offset: 0x328BA, size: 0x8, addend: 0x0, symName: __ZNKSt5arrayINSt8__format6_Arg_tELm1EE5beginEv, symObjAddr: 0x7AE4, symBinAddr: 0x100008284, symSize: 0x1C }
  - { offset: 0x328E4, size: 0x8, addend: 0x0, symName: __ZNKSt5arrayINSt8__format6_Arg_tELm1EE4rendEv, symObjAddr: 0x7AAC, symBinAddr: 0x10000824C, symSize: 0x38 }
  - { offset: 0x32935, size: 0x8, addend: 0x0, symName: __ZNSt16reverse_iteratorIPKNSt8__format6_Arg_tEEC1ES3_, symObjAddr: 0x7A88, symBinAddr: 0x100008228, symSize: 0x24 }
  - { offset: 0x32964, size: 0x8, addend: 0x0, symName: __ZNKSt5arrayINSt8__format6_Arg_tELm1EE4dataEv, symObjAddr: 0x7A74, symBinAddr: 0x100008214, symSize: 0x14 }
  - { offset: 0x3298E, size: 0x8, addend: 0x0, symName: __ZNKSt5arrayINSt8__format6_Arg_tELm1EE3endEv, symObjAddr: 0x7A54, symBinAddr: 0x1000081F4, symSize: 0x20 }
  - { offset: 0x329B8, size: 0x8, addend: 0x0, symName: __ZNKSt5arrayINSt8__format6_Arg_tELm1EE6rbeginEv, symObjAddr: 0x7A1C, symBinAddr: 0x1000081BC, symSize: 0x38 }
  - { offset: 0x329E4, size: 0x8, addend: 0x0, symName: __ZNSt8__format16__pack_arg_typesILi5ELm1EEEDaRKSt5arrayINS_6_Arg_tEXT0_EE, symObjAddr: 0x798C, symBinAddr: 0x10000812C, symSize: 0x90 }
  - { offset: 0x32A5B, size: 0x8, addend: 0x0, symName: __ZNKSt16reverse_iteratorIPKNSt8__format6_Arg_tEEdeEv, symObjAddr: 0x7960, symBinAddr: 0x100008100, symSize: 0x2C }
  - { offset: 0x32AFF, size: 0x8, addend: 0x0, symName: __ZNSt8__detail19_Node_iterator_baseISt4pairIKNSt7__cxx1112basic_stringIcSt11char_traitsIcESaIcEEEdELb1EE7_M_incrEv, symObjAddr: 0x7930, symBinAddr: 0x1000080D0, symSize: 0x30 }
  - { offset: 0x32B29, size: 0x8, addend: 0x0, symName: __ZNSt10_HashtableINSt7__cxx1112basic_stringIcSt11char_traitsIcESaIcEEESt4pairIKS5_dESaIS8_ENSt8__detail10_Select1stESt8equal_toIS5_ESt4hashIS5_ENSA_18_Mod_range_hashingENSA_20_Default_ranged_hashENSA_20_Prime_rehash_policyENSA_17_Hashtable_traitsILb1ELb0ELb1EEEE3endEv, symObjAddr: 0x790C, symBinAddr: 0x1000080AC, symSize: 0x24 }
  - { offset: 0x32B53, size: 0x8, addend: 0x0, symName: __ZNSt10_HashtableINSt7__cxx1112basic_stringIcSt11char_traitsIcESaIcEEESt4pairIKS5_dESaIS8_ENSt8__detail10_Select1stESt8equal_toIS5_ESt4hashIS5_ENSA_18_Mod_range_hashingENSA_20_Default_ranged_hashENSA_20_Prime_rehash_policyENSA_17_Hashtable_traitsILb1ELb0ELb1EEEE5beginEv, symObjAddr: 0x78E0, symBinAddr: 0x100008080, symSize: 0x2C }
  - { offset: 0x32B7D, size: 0x8, addend: 0x0, symName: __ZNSt10_HashtableINSt7__cxx1112basic_stringIcSt11char_traitsIcESaIcEEESt4pairIKS5_dESaIS8_ENSt8__detail10_Select1stESt8equal_toIS5_ESt4hashIS5_ENSA_18_Mod_range_hashingENSA_20_Default_ranged_hashENSA_20_Prime_rehash_policyENSA_17_Hashtable_traitsILb1ELb0ELb1EEEE21_M_deallocate_bucketsEv, symObjAddr: 0x78AC, symBinAddr: 0x10000804C, symSize: 0x34 }
  - { offset: 0x32BA7, size: 0x8, addend: 0x0, symName: __ZNSt8__detail16_Hashtable_allocISaINS_10_Hash_nodeISt4pairIKNSt7__cxx1112basic_stringIcSt11char_traitsIcESaIcEEEdELb1EEEEE19_M_deallocate_nodesEPSB_, symObjAddr: 0x785C, symBinAddr: 0x100007FFC, symSize: 0x50 }
  - { offset: 0x32C06, size: 0x8, addend: 0x0, symName: __ZNKSt10_HashtableINSt7__cxx1112basic_stringIcSt11char_traitsIcESaIcEEESt4pairIKS5_dESaIS8_ENSt8__detail10_Select1stESt8equal_toIS5_ESt4hashIS5_ENSA_18_Mod_range_hashingENSA_20_Default_ranged_hashENSA_20_Prime_rehash_policyENSA_17_Hashtable_traitsILb1ELb0ELb1EEEE8_M_beginEv, symObjAddr: 0x7844, symBinAddr: 0x100007FE4, symSize: 0x18 }
  - { offset: 0x32CA6, size: 0x8, addend: 0x0, symName: __ZNSt10_HashtableINSt7__cxx1112basic_stringIcSt11char_traitsIcESaIcEEESt4pairIKS5_dESaIS8_ENSt8__detail10_Select1stESt8equal_toIS5_ESt4hashIS5_ENSA_18_Mod_range_hashingENSA_20_Default_ranged_hashENSA_20_Prime_rehash_policyENSA_17_Hashtable_traitsILb1ELb0ELb1EEEEC1ESt16initializer_listIS8_EmRKSF_RKSD_RKS9_, symObjAddr: 0x77D8, symBinAddr: 0x100007F78, symSize: 0x6C }
  - { offset: 0x32D80, size: 0x8, addend: 0x0, symName: __ZSt18uninitialized_copyIPKdPdET0_T_S4_S3_, symObjAddr: 0x775C, symBinAddr: 0x100007EFC, symSize: 0x7C }
  - { offset: 0x32E5A, size: 0x8, addend: 0x0, symName: __ZSt16__do_uninit_copyIPKdS1_PdET1_T_T0_S3_, symObjAddr: 0x76D4, symBinAddr: 0x100007E74, symSize: 0x88 }
  - { offset: 0x32F1C, size: 0x8, addend: 0x0, symName: __ZNSt19_UninitDestroyGuardIPdvEC1ERS0_, symObjAddr: 0x76A0, symBinAddr: 0x100007E40, symSize: 0x34 }
  - { offset: 0x32F4B, size: 0x8, addend: 0x0, symName: __ZNSt12_Vector_baseIdSaIdEE13_M_deallocateEPdm, symObjAddr: 0x7614, symBinAddr: 0x100007DB4, symSize: 0x8C }
  - { offset: 0x3301D, size: 0x8, addend: 0x0, symName: __ZNSt8__format9_Seq_sinkINSt7__cxx1112basic_stringIcSt11char_traitsIcESaIcEEEE11_M_overflowEv, symObjAddr: 0x7530, symBinAddr: 0x100007CD0, symSize: 0xE4 }
  - { offset: 0x33113, size: 0x8, addend: 0x0, symName: __ZNKSt4spanIcLm18446744073709551615EE4dataEv, symObjAddr: 0x7518, symBinAddr: 0x100007CB8, symSize: 0x18 }
  - { offset: 0x3313D, size: 0x8, addend: 0x0, symName: __ZNKSt4spanIcLm18446744073709551615EE5emptyEv, symObjAddr: 0x74F0, symBinAddr: 0x100007C90, symSize: 0x28 }
  - { offset: 0x33167, size: 0x8, addend: 0x0, symName: __ZNKSt4spanIcLm18446744073709551615EE4sizeEv, symObjAddr: 0x74CC, symBinAddr: 0x100007C6C, symSize: 0x24 }
  - { offset: 0x331CD, size: 0x8, addend: 0x0, symName: __ZNSt8__format15__do_vformat_toINS_10_Sink_iterIcEEcSt20basic_format_contextIS2_cEEET_S5_St17basic_string_viewIT0_St11char_traitsIS7_EERKSt17basic_format_argsIT1_EPKSt6locale, symObjAddr: 0x71CC, symBinAddr: 0x10000796C, symSize: 0x300 }
  - { offset: 0x332F2, size: 0x8, addend: 0x0, symName: __ZZNSt8__format15__do_vformat_toINS_10_Sink_iterIcEEcSt20basic_format_contextIS2_cEEET_S5_St17basic_string_viewIT0_St11char_traitsIS7_EERKSt17basic_format_argsIT1_EPKSt6localeENKUlRS5_E_clIoEEDaSJ_, symObjAddr: 0x6EA8, symBinAddr: 0x100007648, symSize: 0x18 }
  - { offset: 0x3336D, size: 0x8, addend: 0x0, symName: __ZZNSt8__format15__do_vformat_toINS_10_Sink_iterIcEEcSt20basic_format_contextIS2_cEEET_S5_St17basic_string_viewIT0_St11char_traitsIS7_EERKSt17basic_format_argsIT1_EPKSt6localeENKUlRS5_E_clInEEDaSJ_, symObjAddr: 0x6E90, symBinAddr: 0x100007630, symSize: 0x18 }
  - { offset: 0x333DE, size: 0x8, addend: 0x0, symName: __ZZNSt8__format15__do_vformat_toINS_10_Sink_iterIcEEcSt20basic_format_contextIS2_cEEET_S5_St17basic_string_viewIT0_St11char_traitsIS7_EERKSt17basic_format_argsIT1_EPKSt6localeENKUlRS5_E_clINSt16basic_format_argIS4_E6handleEEEDaSJ_, symObjAddr: 0x6E78, symBinAddr: 0x100007618, symSize: 0x18 }
  - { offset: 0x3344F, size: 0x8, addend: 0x0, symName: __ZZNSt8__format15__do_vformat_toINS_10_Sink_iterIcEEcSt20basic_format_contextIS2_cEEET_S5_St17basic_string_viewIT0_St11char_traitsIS7_EERKSt17basic_format_argsIT1_EPKSt6localeENKUlRS5_E_clIPKvEEDaSJ_, symObjAddr: 0x6E60, symBinAddr: 0x100007600, symSize: 0x18 }
  - { offset: 0x334C0, size: 0x8, addend: 0x0, symName: __ZZNSt8__format15__do_vformat_toINS_10_Sink_iterIcEEcSt20basic_format_contextIS2_cEEET_S5_St17basic_string_viewIT0_St11char_traitsIS7_EERKSt17basic_format_argsIT1_EPKSt6localeENKUlRS5_E_clIS6_IcS8_IcEEEEDaSJ_, symObjAddr: 0x6DA8, symBinAddr: 0x100007548, symSize: 0xB8 }
  - { offset: 0x3358A, size: 0x8, addend: 0x0, symName: __ZZNSt8__format15__do_vformat_toINS_10_Sink_iterIcEEcSt20basic_format_contextIS2_cEEET_S5_St17basic_string_viewIT0_St11char_traitsIS7_EERKSt17basic_format_argsIT1_EPKSt6localeENKUlRS5_E_clIPKcEEDaSJ_, symObjAddr: 0x6CEC, symBinAddr: 0x10000748C, symSize: 0xBC }
  - { offset: 0x33654, size: 0x8, addend: 0x0, symName: __ZZNSt8__format15__do_vformat_toINS_10_Sink_iterIcEEcSt20basic_format_contextIS2_cEEET_S5_St17basic_string_viewIT0_St11char_traitsIS7_EERKSt17basic_format_argsIT1_EPKSt6localeENKUlRS5_E_clIeEEDaSJ_, symObjAddr: 0x6CD4, symBinAddr: 0x100007474, symSize: 0x18 }
  - { offset: 0x336C5, size: 0x8, addend: 0x0, symName: __ZZNSt8__format15__do_vformat_toINS_10_Sink_iterIcEEcSt20basic_format_contextIS2_cEEET_S5_St17basic_string_viewIT0_St11char_traitsIS7_EERKSt17basic_format_argsIT1_EPKSt6localeENKUlRS5_E_clIdEEDaSJ_, symObjAddr: 0x6CBC, symBinAddr: 0x10000745C, symSize: 0x18 }
  - { offset: 0x33736, size: 0x8, addend: 0x0, symName: __ZZNSt8__format15__do_vformat_toINS_10_Sink_iterIcEEcSt20basic_format_contextIS2_cEEET_S5_St17basic_string_viewIT0_St11char_traitsIS7_EERKSt17basic_format_argsIT1_EPKSt6localeENKUlRS5_E_clIfEEDaSJ_, symObjAddr: 0x6CA4, symBinAddr: 0x100007444, symSize: 0x18 }
  - { offset: 0x337A7, size: 0x8, addend: 0x0, symName: __ZZNSt8__format15__do_vformat_toINS_10_Sink_iterIcEEcSt20basic_format_contextIS2_cEEET_S5_St17basic_string_viewIT0_St11char_traitsIS7_EERKSt17basic_format_argsIT1_EPKSt6localeENKUlRS5_E_clIyEEDaSJ_, symObjAddr: 0x6BFC, symBinAddr: 0x10000739C, symSize: 0xA8 }
  - { offset: 0x338B7, size: 0x8, addend: 0x0, symName: __ZZNSt8__format15__do_vformat_toINS_10_Sink_iterIcEEcSt20basic_format_contextIS2_cEEET_S5_St17basic_string_viewIT0_St11char_traitsIS7_EERKSt17basic_format_argsIT1_EPKSt6localeENKUlRS5_E_clIxEEDaSJ_, symObjAddr: 0x6AFC, symBinAddr: 0x10000729C, symSize: 0x100 }
  - { offset: 0x339C7, size: 0x8, addend: 0x0, symName: __ZZNSt8__format15__do_vformat_toINS_10_Sink_iterIcEEcSt20basic_format_contextIS2_cEEET_S5_St17basic_string_viewIT0_St11char_traitsIS7_EERKSt17basic_format_argsIT1_EPKSt6localeENKUlRS5_E_clIjEEDaSJ_, symObjAddr: 0x6A54, symBinAddr: 0x1000071F4, symSize: 0xA8 }
  - { offset: 0x33AD7, size: 0x8, addend: 0x0, symName: __ZZNSt8__format15__do_vformat_toINS_10_Sink_iterIcEEcSt20basic_format_contextIS2_cEEET_S5_St17basic_string_viewIT0_St11char_traitsIS7_EERKSt17basic_format_argsIT1_EPKSt6localeENKUlRS5_E_clIiEEDaSJ_, symObjAddr: 0x6954, symBinAddr: 0x1000070F4, symSize: 0x100 }
  - { offset: 0x33BE7, size: 0x8, addend: 0x0, symName: __ZZNSt8__format15__do_vformat_toINS_10_Sink_iterIcEEcSt20basic_format_contextIS2_cEEET_S5_St17basic_string_viewIT0_St11char_traitsIS7_EERKSt17basic_format_argsIT1_EPKSt6localeENKUlRS5_E_clIcEEDaSJ_, symObjAddr: 0x68D4, symBinAddr: 0x100007074, symSize: 0x80 }
  - { offset: 0x33C8D, size: 0x8, addend: 0x0, symName: __ZZNSt8__format15__do_vformat_toINS_10_Sink_iterIcEEcSt20basic_format_contextIS2_cEEET_S5_St17basic_string_viewIT0_St11char_traitsIS7_EERKSt17basic_format_argsIT1_EPKSt6localeENKUlRS5_E_clIbEEDaSJ_, symObjAddr: 0x67C8, symBinAddr: 0x100006F68, symSize: 0xD0 }
  - { offset: 0x33D68, size: 0x8, addend: 0x0, symName: __ZZNSt8__format15__do_vformat_toINS_10_Sink_iterIcEEcSt20basic_format_contextIS2_cEEET_S5_St17basic_string_viewIT0_St11char_traitsIS7_EERKSt17basic_format_argsIT1_EPKSt6localeENKUlRS5_E_clISt9monostateEEDaSJ_, symObjAddr: 0x67B0, symBinAddr: 0x100006F50, symSize: 0x18 }
  - { offset: 0x33F32, size: 0x8, addend: 0x0, symName: __ZNSt20basic_format_contextINSt8__format10_Sink_iterIcEEcED1Ev, symObjAddr: 0x71A8, symBinAddr: 0x100007948, symSize: 0x24 }
  - { offset: 0x33F54, size: 0x8, addend: 0x0, symName: __ZNSt8__format18__visit_format_argIZNS_15__do_vformat_toINS_10_Sink_iterIcEEcSt20basic_format_contextIS3_cEEET_S6_St17basic_string_viewIT0_St11char_traitsIS8_EERKSt17basic_format_argsIT1_EPKSt6localeEUlRS6_E_S5_EEDcOS6_St16basic_format_argIS8_E, symObjAddr: 0x7164, symBinAddr: 0x100007904, symSize: 0x44 }
  - { offset: 0x33FC9, size: 0x8, addend: 0x0, symName: __ZNSt16basic_format_argISt20basic_format_contextINSt8__format10_Sink_iterIcEEcEE8_M_visitIZNS1_15__do_vformat_toIS3_cS4_EET_S8_St17basic_string_viewIT0_St11char_traitsISA_EERKSt17basic_format_argsIT1_EPKSt6localeEUlRS8_E_EEDcOS8_NS1_6_Arg_tE, symObjAddr: 0x6EC0, symBinAddr: 0x100007660, symSize: 0x2A4 }
  - { offset: 0x342A2, size: 0x8, addend: 0x0, symName: __ZNKSt8__format10_Sink_iterIcE10_M_reserveEm, symObjAddr: 0x6898, symBinAddr: 0x100007038, symSize: 0x3C }
  - { offset: 0x34345, size: 0x8, addend: 0x0, symName: __ZSteqIcSt11char_traitsIcEEbSt17basic_string_viewIT_T0_ENSt13type_identityIS5_E4typeE, symObjAddr: 0x6754, symBinAddr: 0x100006EF4, symSize: 0x5C }
  - { offset: 0x34392, size: 0x8, addend: 0x0, symName: __ZSt9__find_ifIPKDiN9__gnu_cxx5__ops16_Iter_equals_valIS0_EEET_S6_S6_T0_, symObjAddr: 0x66DC, symBinAddr: 0x100006E7C, symSize: 0x78 }
  - { offset: 0x343F0, size: 0x8, addend: 0x0, symName: __ZN9__gnu_cxx5__ops17__iter_equals_valIKDiEENS0_16_Iter_equals_valIT_EERS4_, symObjAddr: 0x66B8, symBinAddr: 0x100006E58, symSize: 0x24 }
  - { offset: 0x34423, size: 0x8, addend: 0x0, symName: __ZSt13__lower_boundIPKjjN9__gnu_cxx5__ops14_Iter_less_valEET_S5_S5_RKT0_T1_, symObjAddr: 0x65AC, symBinAddr: 0x100006D4C, symSize: 0x10C }
  - { offset: 0x345CD, size: 0x8, addend: 0x0, symName: __ZSt13__upper_boundIPKDiDiN9__gnu_cxx5__ops14_Val_less_iterEET_S5_S5_RKT0_T1_, symObjAddr: 0x649C, symBinAddr: 0x100006C3C, symSize: 0x110 }
  - { offset: 0x34777, size: 0x8, addend: 0x0, symName: __ZNSt8__detail10__to_charsImEESt15to_chars_resultPcS2_T_i, symObjAddr: 0x6358, symBinAddr: 0x100006AF8, symSize: 0x144 }
  - { offset: 0x34851, size: 0x8, addend: 0x0, symName: __ZNSt8__detail12__to_chars_2ImEESt15to_chars_resultPcS2_T_, symObjAddr: 0x6264, symBinAddr: 0x100006A04, symSize: 0xF4 }
  - { offset: 0x348D9, size: 0x8, addend: 0x0, symName: __ZNSt8__detail12__to_chars_8ImEESt15to_chars_resultPcS2_T_, symObjAddr: 0x609C, symBinAddr: 0x10000683C, symSize: 0x1C8 }
  - { offset: 0x349A5, size: 0x8, addend: 0x0, symName: __ZNSt8__detail13__to_chars_10ImEESt15to_chars_resultPcS2_T_, symObjAddr: 0x6004, symBinAddr: 0x1000067A4, symSize: 0x98 }
  - { offset: 0x34A17, size: 0x8, addend: 0x0, symName: __ZNSt8__detail13__to_chars_16ImEESt15to_chars_resultPcS2_T_, symObjAddr: 0x5E68, symBinAddr: 0x100006608, symSize: 0x19C }
  - { offset: 0x34AF2, size: 0x8, addend: 0x0, symName: __ZNSt8__detail16__to_chars_len_2ImEEjT_, symObjAddr: 0x5E4C, symBinAddr: 0x1000065EC, symSize: 0x1C }
  - { offset: 0x34B24, size: 0x8, addend: 0x0, symName: __ZNSt8__detail10__to_charsIjEESt15to_chars_resultPcS2_T_i, symObjAddr: 0x5D0C, symBinAddr: 0x1000064AC, symSize: 0x140 }
  - { offset: 0x34BFE, size: 0x8, addend: 0x0, symName: __ZNSt8__detail12__to_chars_2IjEESt15to_chars_resultPcS2_T_, symObjAddr: 0x5C18, symBinAddr: 0x1000063B8, symSize: 0xF4 }
  - { offset: 0x34C86, size: 0x8, addend: 0x0, symName: __ZNSt8__detail12__to_chars_8IjEESt15to_chars_resultPcS2_T_, symObjAddr: 0x5A50, symBinAddr: 0x1000061F0, symSize: 0x1C8 }
  - { offset: 0x34D51, size: 0x8, addend: 0x0, symName: __ZNSt8__detail13__to_chars_10IjEESt15to_chars_resultPcS2_T_, symObjAddr: 0x59B8, symBinAddr: 0x100006158, symSize: 0x98 }
  - { offset: 0x34DC3, size: 0x8, addend: 0x0, symName: __ZNSt8__detail13__to_chars_16IjEESt15to_chars_resultPcS2_T_, symObjAddr: 0x581C, symBinAddr: 0x100005FBC, symSize: 0x19C }
  - { offset: 0x34E9C, size: 0x8, addend: 0x0, symName: __ZNSt8__detail16__to_chars_len_2IjEEjT_, symObjAddr: 0x5800, symBinAddr: 0x100005FA0, symSize: 0x1C }
  - { offset: 0x34F1A, size: 0x8, addend: 0x0, symName: __ZNKSt7__cxx1112basic_stringIcSt11char_traitsIcESaIcEE4dataEv, symObjAddr: 0x57E4, symBinAddr: 0x100005F84, symSize: 0x1C }
  - { offset: 0x34F5A, size: 0x8, addend: 0x0, symName: __ZNKSt7__cxx1112basic_stringIcSt11char_traitsIcESaIcEE6lengthEv, symObjAddr: 0x57C8, symBinAddr: 0x100005F68, symSize: 0x1C }
  - { offset: 0x34F84, size: 0x8, addend: 0x0, symName: __ZNSt7__cxx1112basic_stringIcSt11char_traitsIcESaIcEE16_M_get_allocatorEv, symObjAddr: 0x57B4, symBinAddr: 0x100005F54, symSize: 0x14 }
  - { offset: 0x34FB2, size: 0x8, addend: 0x0, symName: __ZNSt7__cxx1112basic_stringIcSt11char_traitsIcESaIcEE7reserveEm, symObjAddr: 0x570C, symBinAddr: 0x100005EAC, symSize: 0xA8 }
  - { offset: 0x3500F, size: 0x8, addend: 0x0, symName: __ZNKSt7__cxx1112basic_stringIcSt11char_traitsIcESaIcEE11_M_is_localEv, symObjAddr: 0x56A4, symBinAddr: 0x100005E44, symSize: 0x68 }
  - { offset: 0x35039, size: 0x8, addend: 0x0, symName: __ZNKSt7__cxx1112basic_stringIcSt11char_traitsIcESaIcEE8capacityEv, symObjAddr: 0x5620, symBinAddr: 0x100005DC0, symSize: 0x84 }
  - { offset: 0x35074, size: 0x8, addend: 0x0, symName: __ZNSt7__cxx1112basic_stringIcSt11char_traitsIcESaIcEE9_M_lengthEm, symObjAddr: 0x55FC, symBinAddr: 0x100005D9C, symSize: 0x24 }
  - { offset: 0x350AA, size: 0x8, addend: 0x0, symName: __ZSt12construct_atIcJRcEQaant20is_unbounded_array_vIT_ErqXgsnwcvPvLi0E_S1_pispcl7declvalIT0_EEEEEPS1_S4_DpOS3_, symObjAddr: 0x558C, symBinAddr: 0x100005D2C, symSize: 0x70 }
  - { offset: 0x35155, size: 0x8, addend: 0x0, symName: __ZNSt7__cxx1112basic_stringIcSt11char_traitsIcESaIcEE10_M_disposeEv, symObjAddr: 0x5544, symBinAddr: 0x100005CE4, symSize: 0x48 }
  - { offset: 0x3517F, size: 0x8, addend: 0x0, symName: __ZNSt7__cxx1112basic_stringIcSt11char_traitsIcESaIcEE11_M_capacityEm, symObjAddr: 0x5520, symBinAddr: 0x100005CC0, symSize: 0x24 }
  - { offset: 0x351BA, size: 0x8, addend: 0x0, symName: __ZNSt7__cxx1112basic_stringIcSt11char_traitsIcESaIcEE7_M_dataEPc, symObjAddr: 0x54FC, symBinAddr: 0x100005C9C, symSize: 0x24 }
  - { offset: 0x351F7, size: 0x8, addend: 0x0, symName: __ZNSt7__cxx1112basic_stringIcSt11char_traitsIcESaIcEE9_M_createERmm, symObjAddr: 0x5408, symBinAddr: 0x100005BA8, symSize: 0xF4 }
  - { offset: 0x3525B, size: 0x8, addend: 0x0, symName: __ZNSt6vectorIiSaIiEED1Ev, symObjAddr: 0x53AC, symBinAddr: 0x100005B4C, symSize: 0x5C }
  - { offset: 0x352B7, size: 0x8, addend: 0x0, symName: __ZNSt15__new_allocatorIiE8allocateEmPKv, symObjAddr: 0x5330, symBinAddr: 0x100005AD0, symSize: 0x7C }
  - { offset: 0x35329, size: 0x8, addend: 0x0, symName: __ZSt22__uninitialized_copy_aIPKiS1_PiiET1_T_T0_S3_RSaIT2_E, symObjAddr: 0x52D0, symBinAddr: 0x100005A70, symSize: 0x60 }
  - { offset: 0x3542C, size: 0x8, addend: 0x0, symName: __ZNSt12_Vector_baseIiSaIiEED2Ev, symObjAddr: 0x5280, symBinAddr: 0x100005A20, symSize: 0x50 }
  - { offset: 0x35452, size: 0x8, addend: 0x0, symName: __ZNSt8__format5_SpecIcE15_M_parse_localeEPKcS3_, symObjAddr: 0x5238, symBinAddr: 0x1000059D8, symSize: 0x48 }
  - { offset: 0x35496, size: 0x8, addend: 0x0, symName: __ZNSt8__format5_SpecIcE18_M_parse_precisionEPKcS3_RSt26basic_format_parse_contextIcE, symObjAddr: 0x5164, symBinAddr: 0x100005904, symSize: 0xD4 }
  - { offset: 0x35515, size: 0x8, addend: 0x0, symName: __ZNSt8__format5_SpecIcE14_M_parse_widthEPKcS3_RSt26basic_format_parse_contextIcE, symObjAddr: 0x50BC, symBinAddr: 0x10000585C, symSize: 0xA8 }
  - { offset: 0x35594, size: 0x8, addend: 0x0, symName: __ZNSt8__format5_SpecIcE18_M_parse_zero_fillEPKcS3_, symObjAddr: 0x5074, symBinAddr: 0x100005814, symSize: 0x48 }
  - { offset: 0x355D8, size: 0x8, addend: 0x0, symName: __ZNSt8__format5_SpecIcE23_M_parse_alternate_formEPKcS3_, symObjAddr: 0x502C, symBinAddr: 0x1000057CC, symSize: 0x48 }
  - { offset: 0x3561C, size: 0x8, addend: 0x0, symName: __ZNSt8__format5_SpecIcE13_M_parse_signEPKcS3_, symObjAddr: 0x4FC8, symBinAddr: 0x100005768, symSize: 0x64 }
  - { offset: 0x35684, size: 0x8, addend: 0x0, symName: __ZNSt8__format5_SpecIcE23_M_parse_fill_and_alignEPKcS3_, symObjAddr: 0x4F84, symBinAddr: 0x100005724, symSize: 0x44 }
  - { offset: 0x3571E, size: 0x8, addend: 0x0, symName: __ZNSt4pairItPKcEC1IiDnEEOT_OT0_, symObjAddr: 0x4F3C, symBinAddr: 0x1000056DC, symSize: 0x48 }
  - { offset: 0x35788, size: 0x8, addend: 0x0, symName: __ZNSt8__format15__parse_integerIcEESt4pairItPKT_ES4_S4_, symObjAddr: 0x4E84, symBinAddr: 0x100005624, symSize: 0xB8 }
  - { offset: 0x3583D, size: 0x8, addend: 0x0, symName: __ZNSt4pairItPKcEC1ERKtRKS1_Qcl16_S_constructibleIRKT_RKT0_EE, symObjAddr: 0x4E48, symBinAddr: 0x1000055E8, symSize: 0x3C }
  - { offset: 0x35875, size: 0x8, addend: 0x0, symName: __ZNSt26basic_format_parse_contextIcE11next_arg_idEv, symObjAddr: 0x4DD4, symBinAddr: 0x100005574, symSize: 0x74 }
  - { offset: 0x3589B, size: 0x8, addend: 0x0, symName: __ZSt6formatIJRdEENSt7__cxx1112basic_stringIcSt11char_traitsIcESaIcEEESt19basic_format_stringIcJDpNSt13type_identityIT_E4typeEEEDpOS9_, symObjAddr: 0x4D50, symBinAddr: 0x1000054F0, symSize: 0x84 }
  - { offset: 0x35992, size: 0x8, addend: 0x0, symName: __ZNKSt8__detail14_Node_iteratorISt4pairIKNSt7__cxx1112basic_stringIcSt11char_traitsIcESaIcEEEdELb0ELb1EEdeEv, symObjAddr: 0x4D14, symBinAddr: 0x1000054B4, symSize: 0x3C }
  - { offset: 0x35A04, size: 0x8, addend: 0x0, symName: __ZNSt8__detail14_Node_iteratorISt4pairIKNSt7__cxx1112basic_stringIcSt11char_traitsIcESaIcEEEdELb0ELb1EEppEv, symObjAddr: 0x4CF4, symBinAddr: 0x100005494, symSize: 0x20 }
  - { offset: 0x35A30, size: 0x8, addend: 0x0, symName: __ZNSt8__detaileqERKNS_19_Node_iterator_baseISt4pairIKNSt7__cxx1112basic_stringIcSt11char_traitsIcESaIcEEEdELb1EEESC_, symObjAddr: 0x4CC4, symBinAddr: 0x100005464, symSize: 0x30 }
  - { offset: 0x35A6F, size: 0x8, addend: 0x0, symName: __ZNSt13unordered_mapINSt7__cxx1112basic_stringIcSt11char_traitsIcESaIcEEEdSt4hashIS5_ESt8equal_toIS5_ESaISt4pairIKS5_dEEE3endEv, symObjAddr: 0x4CA8, symBinAddr: 0x100005448, symSize: 0x1C }
  - { offset: 0x35A99, size: 0x8, addend: 0x0, symName: __ZNSt13unordered_mapINSt7__cxx1112basic_stringIcSt11char_traitsIcESaIcEEEdSt4hashIS5_ESt8equal_toIS5_ESaISt4pairIKS5_dEEE5beginEv, symObjAddr: 0x4C8C, symBinAddr: 0x10000542C, symSize: 0x1C }
  - { offset: 0x35ADD, size: 0x8, addend: 0x0, symName: __ZNSt10_HashtableINSt7__cxx1112basic_stringIcSt11char_traitsIcESaIcEEESt4pairIKS5_dESaIS8_ENSt8__detail10_Select1stESt8equal_toIS5_ESt4hashIS5_ENSA_18_Mod_range_hashingENSA_20_Default_ranged_hashENSA_20_Prime_rehash_policyENSA_17_Hashtable_traitsILb1ELb0ELb1EEEED1Ev, symObjAddr: 0x4C50, symBinAddr: 0x1000053F0, symSize: 0x3C }
  - { offset: 0x35B21, size: 0x8, addend: 0x0, symName: __ZNSt8__detail16_Hashtable_allocISaINS_10_Hash_nodeISt4pairIKNSt7__cxx1112basic_stringIcSt11char_traitsIcESaIcEEEdELb1EEEEED2Ev, symObjAddr: 0x4C30, symBinAddr: 0x1000053D0, symSize: 0x20 }
  - { offset: 0x35B71, size: 0x8, addend: 0x0, symName: __ZNSt8__detail21_Hashtable_ebo_helperISaINS_10_Hash_nodeISt4pairIKNSt7__cxx1112basic_stringIcSt11char_traitsIcESaIcEEEdELb1EEEELb1EED1Ev, symObjAddr: 0x4C10, symBinAddr: 0x1000053B0, symSize: 0x20 }
  - { offset: 0x35C16, size: 0x8, addend: 0x0, symName: __ZNSt13unordered_mapINSt7__cxx1112basic_stringIcSt11char_traitsIcESaIcEEEdSt4hashIS5_ESt8equal_toIS5_ESaISt4pairIKS5_dEEEC1ESt16initializer_listISC_EmRKS7_RKS9_RKSD_, symObjAddr: 0x4BC8, symBinAddr: 0x100005368, symSize: 0x48 }
  - { offset: 0x35CD5, size: 0x8, addend: 0x0, symName: __ZNSt6vectorIdSaIdEE3endEv, symObjAddr: 0x4B98, symBinAddr: 0x100005338, symSize: 0x30 }
  - { offset: 0x35D29, size: 0x8, addend: 0x0, symName: __ZNSt6vectorIdSaIdEE5beginEv, symObjAddr: 0x4B6C, symBinAddr: 0x10000530C, symSize: 0x2C }
  - { offset: 0x35D97, size: 0x8, addend: 0x0, symName: __ZNSt6vectorIdSaIdEED1Ev, symObjAddr: 0x4B10, symBinAddr: 0x1000052B0, symSize: 0x5C }
  - { offset: 0x35DF3, size: 0x8, addend: 0x0, symName: __ZNSt15__new_allocatorIdE8allocateEmPKv, symObjAddr: 0x4A94, symBinAddr: 0x100005234, symSize: 0x7C }
  - { offset: 0x35E65, size: 0x8, addend: 0x0, symName: __ZSt22__uninitialized_copy_aIPKdS1_PddET1_T_T0_S3_RSaIT2_E, symObjAddr: 0x4A34, symBinAddr: 0x1000051D4, symSize: 0x60 }
  - { offset: 0x35F68, size: 0x8, addend: 0x0, symName: __ZNSt12_Vector_baseIdSaIdEED2Ev, symObjAddr: 0x49E4, symBinAddr: 0x100005184, symSize: 0x50 }
  - { offset: 0x35F8E, size: 0x8, addend: 0x0, symName: __ZNOSt8__format9_Seq_sinkINSt7__cxx1112basic_stringIcSt11char_traitsIcESaIcEEEE3getEv, symObjAddr: 0x4910, symBinAddr: 0x1000050B0, symSize: 0xD4 }
  - { offset: 0x36100, size: 0x8, addend: 0x0, symName: __ZSt12construct_atISt6localeJEQaant20is_unbounded_array_vIT_ErqXgsnwcvPvLi0E_S1_pispcl7declvalIT0_EEEEEPS1_S4_DpOS3_, symObjAddr: 0x48B0, symBinAddr: 0x100005050, symSize: 0x60 }
  - { offset: 0x361BC, size: 0x8, addend: 0x0, symName: __ZSt4findIPKDiDiET_S2_S2_RKT0_, symObjAddr: 0x487C, symBinAddr: 0x10000501C, symSize: 0x34 }
  - { offset: 0x36286, size: 0x8, addend: 0x0, symName: __ZSt11lower_boundIPKjjET_S2_S2_RKT0_, symObjAddr: 0x4840, symBinAddr: 0x100004FE0, symSize: 0x3C }
  - { offset: 0x36322, size: 0x8, addend: 0x0, symName: __ZSt11upper_boundIPKDiDiET_S2_S2_RKT0_, symObjAddr: 0x4804, symBinAddr: 0x100004FA4, symSize: 0x3C }
  - { offset: 0x363B2, size: 0x8, addend: 0x0, symName: __ZNKSt7__cxx1112basic_stringIcSt11char_traitsIcESaIcEE8max_sizeEv, symObjAddr: 0x47CC, symBinAddr: 0x100004F6C, symSize: 0x38 }
  - { offset: 0x363FE, size: 0x8, addend: 0x0, symName: __ZNKSt7__cxx1112basic_stringIcSt11char_traitsIcESaIcEE16_M_get_allocatorEv, symObjAddr: 0x47B8, symBinAddr: 0x100004F58, symSize: 0x14 }
  - { offset: 0x36424, size: 0x8, addend: 0x0, symName: __ZSt13__countl_zeroIjEiT_, symObjAddr: 0x4798, symBinAddr: 0x100004F38, symSize: 0x20 }
  - { offset: 0x36466, size: 0x8, addend: 0x0, symName: __ZSt12__to_chars_iIyESt15to_chars_resultPcS1_T_i, symObjAddr: 0x45C8, symBinAddr: 0x100004D68, symSize: 0x1D0 }
  - { offset: 0x36507, size: 0x8, addend: 0x0, symName: __ZSt12__to_chars_iImESt15to_chars_resultPcS1_T_i, symObjAddr: 0x43F8, symBinAddr: 0x100004B98, symSize: 0x1D0 }
  - { offset: 0x36595, size: 0x8, addend: 0x0, symName: __ZSt12__to_chars_iIjESt15to_chars_resultPcS1_T_i, symObjAddr: 0x4228, symBinAddr: 0x1000049C8, symSize: 0x1D0 }
  - { offset: 0x36636, size: 0x8, addend: 0x0, symName: __ZSt12__to_chars_iIhESt15to_chars_resultPcS1_T_i, symObjAddr: 0x4054, symBinAddr: 0x1000047F4, symSize: 0x1D4 }
  - { offset: 0x366DB, size: 0x8, addend: 0x0, symName: __ZNKSt7__cxx1112basic_stringIcSt11char_traitsIcESaIcEEcvSt17basic_string_viewIcS2_EEv, symObjAddr: 0x400C, symBinAddr: 0x1000047AC, symSize: 0x48 }
  - { offset: 0x36701, size: 0x8, addend: 0x0, symName: __ZNSt8__detail18__to_chars_10_implIyEEvPcjT_, symObjAddr: 0x3E40, symBinAddr: 0x1000045E0, symSize: 0x1CC }
  - { offset: 0x367BD, size: 0x8, addend: 0x0, symName: __ZNSt8__detail18__to_chars_10_implImEEvPcjT_, symObjAddr: 0x3C74, symBinAddr: 0x100004414, symSize: 0x1CC }
  - { offset: 0x368A5, size: 0x8, addend: 0x0, symName: __ZNSt7__cxx1112basic_stringIcSt11char_traitsIcESaIcEEC1EOS4_, symObjAddr: 0x3ADC, symBinAddr: 0x10000427C, symSize: 0x198 }
  - { offset: 0x369A0, size: 0x8, addend: 0x0, symName: __ZNSt8__detail18__to_chars_10_implIjEEvPcjT_, symObjAddr: 0x3928, symBinAddr: 0x1000040C8, symSize: 0x1B4 }
  - { offset: 0x36A7A, size: 0x8, addend: 0x0, symName: __ZNSt7__cxx1112basic_stringIcSt11char_traitsIcESaIcEED1Ev, symObjAddr: 0x3900, symBinAddr: 0x1000040A0, symSize: 0x28 }
  - { offset: 0x36AA0, size: 0x8, addend: 0x0, symName: __ZNSt7__cxx1112basic_stringIcSt11char_traitsIcESaIcEE13_M_set_lengthEm, symObjAddr: 0x38B8, symBinAddr: 0x100004058, symSize: 0x48 }
  - { offset: 0x36B0F, size: 0x8, addend: 0x0, symName: __ZNSt17basic_string_viewIcSt11char_traitsIcEEC1EPKcm, symObjAddr: 0x3884, symBinAddr: 0x100004024, symSize: 0x34 }
  - { offset: 0x36B47, size: 0x8, addend: 0x0, symName: __ZNKSt17basic_string_viewIcSt11char_traitsIcEE4dataEv, symObjAddr: 0x386C, symBinAddr: 0x10000400C, symSize: 0x18 }
  - { offset: 0x36B6D, size: 0x8, addend: 0x0, symName: __ZN9__gnu_cxx11char_traitsIcE6assignEPcmc, symObjAddr: 0x37D0, symBinAddr: 0x100003F70, symSize: 0x9C }
  - { offset: 0x36C1B, size: 0x8, addend: 0x0, symName: __ZN9__gnu_cxx11char_traitsIcE4copyEPcPKcm, symObjAddr: 0x371C, symBinAddr: 0x100003EBC, symSize: 0xB4 }
  - { offset: 0x36CA5, size: 0x8, addend: 0x0, symName: __ZN9__gnu_cxx11char_traitsIcE4moveEPcPKcm, symObjAddr: 0x36B0, symBinAddr: 0x100003E50, symSize: 0x6C }
  - { offset: 0x36D07, size: 0x8, addend: 0x0, symName: __ZSt12construct_atIcJRKcEQaant20is_unbounded_array_vIT_ErqXgsnwcvPvLi0E_S2_pispcl7declvalIT0_EEEEEPS2_S5_DpOS4_, symObjAddr: 0x3640, symBinAddr: 0x100003DE0, symSize: 0x70 }
  - { offset: 0x36D91, size: 0x8, addend: 0x0, symName: _main, symObjAddr: 0x3150, symBinAddr: 0x1000038F0, symSize: 0x4F0 }
  - { offset: 0x3715B, size: 0x8, addend: 0x0, symName: __ZNSt7__cxx1112basic_stringIcSt11char_traitsIcESaIcEE7_S_copyEPcPKcm, symObjAddr: 0x3104, symBinAddr: 0x1000038A4, symSize: 0x4C }
  - { offset: 0x371C6, size: 0x8, addend: 0x0, symName: __ZNSt7__cxx1112basic_stringIcSt11char_traitsIcESaIcEE13_S_copy_charsIPKcEEvPcT_S9_, symObjAddr: 0x30BC, symBinAddr: 0x10000385C, symSize: 0x48 }
  - { offset: 0x37243, size: 0x8, addend: 0x0, symName: __ZNKSt7__cxx1112basic_stringIcSt11char_traitsIcESaIcEE7_M_dataEv, symObjAddr: 0x30A4, symBinAddr: 0x100003844, symSize: 0x18 }
  - { offset: 0x372DE, size: 0x8, addend: 0x0, symName: __ZNSt7__cxx1112basic_stringIcSt11char_traitsIcESaIcEE12_M_constructIPKcEEvT_S8_St20forward_iterator_tag, symObjAddr: 0x2F64, symBinAddr: 0x100003704, symSize: 0x140 }
  - { offset: 0x373DD, size: 0x8, addend: 0x0, symName: __ZZNSt7__cxx1112basic_stringIcSt11char_traitsIcESaIcEE12_M_constructIPKcEEvT_S8_St20forward_iterator_tagEN6_GuardC1EPS4_, symObjAddr: 0x2F0C, symBinAddr: 0x1000036AC, symSize: 0x24 }
  - { offset: 0x37410, size: 0x8, addend: 0x0, symName: __ZZNSt7__cxx1112basic_stringIcSt11char_traitsIcESaIcEE12_M_constructIPKcEEvT_S8_St20forward_iterator_tagEN6_GuardD1Ev, symObjAddr: 0x2F30, symBinAddr: 0x1000036D0, symSize: 0x34 }
  - { offset: 0x37554, size: 0x8, addend: 0x0, symName: __ZNSt12_Vector_baseIiSaIiEE11_M_allocateEm, symObjAddr: 0x2E48, symBinAddr: 0x1000035E8, symSize: 0xC4 }
  - { offset: 0x37614, size: 0x8, addend: 0x0, symName: __ZNSt6vectorIiSaIiEE11_S_max_sizeERKS0_, symObjAddr: 0x2E14, symBinAddr: 0x1000035B4, symSize: 0x34 }
  - { offset: 0x37660, size: 0x8, addend: 0x0, symName: __ZNSt6vectorIiSaIiEE17_S_check_init_lenEmRKS0_, symObjAddr: 0x2DA0, symBinAddr: 0x100003540, symSize: 0x74 }
  - { offset: 0x37716, size: 0x8, addend: 0x0, symName: __ZNSt12_Vector_baseIiSaIiEE19_M_get_Tp_allocatorEv, symObjAddr: 0x2D8C, symBinAddr: 0x10000352C, symSize: 0x14 }
  - { offset: 0x37740, size: 0x8, addend: 0x0, symName: __ZNSt6vectorIiSaIiEE21_M_range_initialize_nIPKiS4_EEvT_T0_m, symObjAddr: 0x2CDC, symBinAddr: 0x10000347C, symSize: 0xB0 }
  - { offset: 0x377E1, size: 0x8, addend: 0x0, symName: __ZNKSt16initializer_listIiE4sizeEv, symObjAddr: 0x2CC4, symBinAddr: 0x100003464, symSize: 0x18 }
  - { offset: 0x3780B, size: 0x8, addend: 0x0, symName: __ZNKSt16initializer_listIiE3endEv, symObjAddr: 0x2C8C, symBinAddr: 0x10000342C, symSize: 0x38 }
  - { offset: 0x37835, size: 0x8, addend: 0x0, symName: __ZNKSt16initializer_listIiE5beginEv, symObjAddr: 0x2C74, symBinAddr: 0x100003414, symSize: 0x18 }
  - { offset: 0x37879, size: 0x8, addend: 0x0, symName: __ZNSt12_Vector_baseIiSaIiEE17_Vector_impl_dataC2Ev, symObjAddr: 0x2C48, symBinAddr: 0x1000033E8, symSize: 0x2C }
  - { offset: 0x37904, size: 0x8, addend: 0x0, symName: __ZNSt12_Vector_baseIiSaIiEE12_Vector_implC1ERKS0_, symObjAddr: 0x2BFC, symBinAddr: 0x10000339C, symSize: 0x4C }
  - { offset: 0x379B3, size: 0x8, addend: 0x0, symName: __ZNSt12_Vector_baseIiSaIiEEC2ERKS0_, symObjAddr: 0x2BD4, symBinAddr: 0x100003374, symSize: 0x28 }
  - { offset: 0x379FF, size: 0x8, addend: 0x0, symName: __ZNSt12_Vector_baseIiSaIiEE12_Vector_implD1Ev, symObjAddr: 0x2BB4, symBinAddr: 0x100003354, symSize: 0x20 }
  - { offset: 0x37A7E, size: 0x8, addend: 0x0, symName: __ZNSt6vectorIiSaIiEEC1ESt16initializer_listIiERKS0_, symObjAddr: 0x2B38, symBinAddr: 0x1000032D8, symSize: 0x7C }
  - { offset: 0x37AE2, size: 0x8, addend: 0x0, symName: __ZNSt8__format14__formatter_fpIcE5parseERSt26basic_format_parse_contextIcE, symObjAddr: 0x27B0, symBinAddr: 0x100002F50, symSize: 0x388 }
  - { offset: 0x37BE6, size: 0x8, addend: 0x0, symName: __ZZNSt8__format14__formatter_fpIcE5parseERSt26basic_format_parse_contextIcEENKUlvE_clEv, symObjAddr: 0x2718, symBinAddr: 0x100002EB8, symSize: 0x34 }
  - { offset: 0x37CF9, size: 0x8, addend: 0x0, symName: __ZZNSt8__format14__formatter_fpIcE5parseERSt26basic_format_parse_contextIcEENKUlvE0_clEv, symObjAddr: 0x274C, symBinAddr: 0x100002EEC, symSize: 0x64 }
  - { offset: 0x37D95, size: 0x8, addend: 0x0, symName: __ZNSt26basic_format_parse_contextIcE12check_arg_idEm, symObjAddr: 0x26B4, symBinAddr: 0x100002E54, symSize: 0x64 }
  - { offset: 0x37E42, size: 0x8, addend: 0x0, symName: __ZNSt4pairItPKcEC1IiS1_EEOT_OT0_, symObjAddr: 0x2664, symBinAddr: 0x100002E04, symSize: 0x50 }
  - { offset: 0x37ED0, size: 0x8, addend: 0x0, symName: __ZNSt8__format14__parse_arg_idIcEESt4pairItPKT_ES4_S4_, symObjAddr: 0x2548, symBinAddr: 0x100002CE8, symSize: 0x11C }
  - { offset: 0x37F51, size: 0x8, addend: 0x0, symName: __ZNSt8__format8_ScannerIcE23_M_on_replacement_fieldEv, symObjAddr: 0x232C, symBinAddr: 0x100002ACC, symSize: 0x21C }
  - { offset: 0x37FFB, size: 0x8, addend: 0x0, symName: __ZNSt10__pair_getILm1EE10__move_getItPKcEEOT0_OSt4pairIT_S4_E, symObjAddr: 0x230C, symBinAddr: 0x100002AAC, symSize: 0x20 }
  - { offset: 0x3805B, size: 0x8, addend: 0x0, symName: __ZSt3getILm1EtPKcEONSt13tuple_elementIXT_ESt4pairIT0_T1_EE4typeEOS6_, symObjAddr: 0x22E8, symBinAddr: 0x100002A88, symSize: 0x24 }
  - { offset: 0x380EF, size: 0x8, addend: 0x0, symName: __ZNSt10__pair_getILm0EE10__move_getItPKcEEOT_OSt4pairIS4_T0_E, symObjAddr: 0x22CC, symBinAddr: 0x100002A6C, symSize: 0x1C }
  - { offset: 0x38173, size: 0x8, addend: 0x0, symName: __ZSt3getILm0EtPKcEONSt13tuple_elementIXT_ESt4pairIT0_T1_EE4typeEOS6_, symObjAddr: 0x22A8, symBinAddr: 0x100002A48, symSize: 0x24 }
  - { offset: 0x381E1, size: 0x8, addend: 0x0, symName: __ZNSt26basic_format_parse_contextIcE10advance_toEPKc, symObjAddr: 0x2284, symBinAddr: 0x100002A24, symSize: 0x24 }
  - { offset: 0x3821C, size: 0x8, addend: 0x0, symName: __ZNSt8__format8_ScannerIcE11_M_on_charsEPKc, symObjAddr: 0x226C, symBinAddr: 0x100002A0C, symSize: 0x18 }
  - { offset: 0x3824B, size: 0x8, addend: 0x0, symName: __ZN9__gnu_cxx11char_traitsIcE4findEPKcmRS2_, symObjAddr: 0x21F8, symBinAddr: 0x100002998, symSize: 0x74 }
  - { offset: 0x382BE, size: 0x8, addend: 0x0, symName: __ZNKSt17basic_string_viewIcSt11char_traitsIcEE4findEcm, symObjAddr: 0x2160, symBinAddr: 0x100002900, symSize: 0x98 }
  - { offset: 0x383AF, size: 0x8, addend: 0x0, symName: __ZNSt17basic_string_viewIcSt11char_traitsIcEEC1IPKcS5_EET_T0_, symObjAddr: 0x2118, symBinAddr: 0x1000028B8, symSize: 0x48 }
  - { offset: 0x3841C, size: 0x8, addend: 0x0, symName: __ZNKSt26basic_format_parse_contextIcE3endEv, symObjAddr: 0x2100, symBinAddr: 0x1000028A0, symSize: 0x18 }
  - { offset: 0x38446, size: 0x8, addend: 0x0, symName: __ZNKSt8__format8_ScannerIcE3endEv, symObjAddr: 0x20E0, symBinAddr: 0x100002880, symSize: 0x20 }
  - { offset: 0x38470, size: 0x8, addend: 0x0, symName: __ZNKSt26basic_format_parse_contextIcE5beginEv, symObjAddr: 0x20C8, symBinAddr: 0x100002868, symSize: 0x18 }
  - { offset: 0x3849A, size: 0x8, addend: 0x0, symName: __ZNKSt8__format8_ScannerIcE5beginEv, symObjAddr: 0x20A8, symBinAddr: 0x100002848, symSize: 0x20 }
  - { offset: 0x384C4, size: 0x8, addend: 0x0, symName: __ZNKSt8__format8_ScannerIcE10_M_fmt_strEv, symObjAddr: 0x2060, symBinAddr: 0x100002800, symSize: 0x48 }
  - { offset: 0x384EE, size: 0x8, addend: 0x0, symName: __ZNSt8__format8_ScannerIcE7_M_scanEv, symObjAddr: 0x1C5C, symBinAddr: 0x1000023FC, symSize: 0x404 }
  - { offset: 0x385CB, size: 0x8, addend: 0x0, symName: __ZNKSt17basic_string_viewIcSt11char_traitsIcEEixEm, symObjAddr: 0x1BF0, symBinAddr: 0x100002390, symSize: 0x6C }
  - { offset: 0x38623, size: 0x8, addend: 0x0, symName: __ZNKSt17basic_string_viewIcSt11char_traitsIcEE3endEv, symObjAddr: 0x1BCC, symBinAddr: 0x10000236C, symSize: 0x24 }
  - { offset: 0x3864D, size: 0x8, addend: 0x0, symName: __ZNKSt17basic_string_viewIcSt11char_traitsIcEE5beginEv, symObjAddr: 0x1BB4, symBinAddr: 0x100002354, symSize: 0x18 }
  - { offset: 0x386AD, size: 0x8, addend: 0x0, symName: __ZNSt26basic_format_parse_contextIcEC2ESt17basic_string_viewIcSt11char_traitsIcEEm, symObjAddr: 0x1B50, symBinAddr: 0x1000022F0, symSize: 0x64 }
  - { offset: 0x3871B, size: 0x8, addend: 0x0, symName: __ZNSt8__format8_ScannerIcEC2ESt17basic_string_viewIcSt11char_traitsIcEEm, symObjAddr: 0x1B08, symBinAddr: 0x1000022A8, symSize: 0x48 }
  - { offset: 0x38787, size: 0x8, addend: 0x0, symName: __ZNSt8__format8_ScannerIcE14_Parse_contextCI1St26basic_format_parse_contextIcEESt17basic_string_viewIcSt11char_traitsIcEEm, symObjAddr: 0x1ACC, symBinAddr: 0x10000226C, symSize: 0x3C }
  - { offset: 0x387BB, size: 0x8, addend: 0x0, symName: __ZN9__gnu_cxx11char_traitsIcE2eqERKcS3_, symObjAddr: 0x1A9C, symBinAddr: 0x10000223C, symSize: 0x30 }
  - { offset: 0x387F4, size: 0x8, addend: 0x0, symName: __ZN9__gnu_cxx11char_traitsIcE6lengthEPKc, symObjAddr: 0x1A44, symBinAddr: 0x1000021E4, symSize: 0x58 }
  - { offset: 0x38858, size: 0x8, addend: 0x0, symName: __ZNSt17basic_string_viewIcSt11char_traitsIcEEC1EPKc, symObjAddr: 0x1A08, symBinAddr: 0x1000021A8, symSize: 0x3C }
  - { offset: 0x38883, size: 0x8, addend: 0x0, symName: __ZNSt10__pair_getILm1EE11__const_getIKNSt7__cxx1112basic_stringIcSt11char_traitsIcESaIcEEEdEERKT0_RKSt4pairIT_S9_E, symObjAddr: 0x19F0, symBinAddr: 0x100002190, symSize: 0x18 }
  - { offset: 0x388C5, size: 0x8, addend: 0x0, symName: __ZSt3getILm1EKNSt7__cxx1112basic_stringIcSt11char_traitsIcESaIcEEEdERKNSt13tuple_elementIXT_ESt4pairIT0_T1_EE4typeERKSB_, symObjAddr: 0x19D4, symBinAddr: 0x100002174, symSize: 0x1C }
  - { offset: 0x3890B, size: 0x8, addend: 0x0, symName: __ZNSt10__pair_getILm0EE11__const_getIKNSt7__cxx1112basic_stringIcSt11char_traitsIcESaIcEEEdEERKT_RKSt4pairIS9_T0_E, symObjAddr: 0x19C0, symBinAddr: 0x100002160, symSize: 0x14 }
  - { offset: 0x3894D, size: 0x8, addend: 0x0, symName: __ZSt3getILm0EKNSt7__cxx1112basic_stringIcSt11char_traitsIcESaIcEEEdERKNSt13tuple_elementIXT_ESt4pairIT0_T1_EE4typeERKSB_, symObjAddr: 0x19A4, symBinAddr: 0x100002144, symSize: 0x1C }
  - { offset: 0x38993, size: 0x8, addend: 0x0, symName: __ZNSt8__detaileqERKNS_14_Node_iteratorISt4pairIKNSt7__cxx1112basic_stringIcSt11char_traitsIcESaIcEEEdELb0ELb1EEESC_, symObjAddr: 0x1968, symBinAddr: 0x100002108, symSize: 0x3C }
  - { offset: 0x389DF, size: 0x8, addend: 0x0, symName: __ZNSt13unordered_mapINSt7__cxx1112basic_stringIcSt11char_traitsIcESaIcEEEdSt4hashIS5_ESt8equal_toIS5_ESaISt4pairIKS5_dEEED1Ev, symObjAddr: 0x1948, symBinAddr: 0x1000020E8, symSize: 0x20 }
  - { offset: 0x38A39, size: 0x8, addend: 0x0, symName: __ZNSt7__cxx1112basic_stringIcSt11char_traitsIcESaIcEE12_Alloc_hiderC1EPcRKS3_, symObjAddr: 0x18F8, symBinAddr: 0x100002098, symSize: 0x50 }
  - { offset: 0x38B10, size: 0x8, addend: 0x0, symName: __ZNSt7__cxx1112basic_stringIcSt11char_traitsIcESaIcEEC1IS3_EEPKcRKS3_, symObjAddr: 0x185C, symBinAddr: 0x100001FFC, symSize: 0x9C }
  - { offset: 0x38BE7, size: 0x8, addend: 0x0, symName: __ZNSt4pairIKNSt7__cxx1112basic_stringIcSt11char_traitsIcESaIcEEEdEC1IRA5_KcdEEOT_OT0_, symObjAddr: 0x17F8, symBinAddr: 0x100001F98, symSize: 0x64 }
  - { offset: 0x38CFC, size: 0x8, addend: 0x0, symName: __ZNSt4pairIKNSt7__cxx1112basic_stringIcSt11char_traitsIcESaIcEEEdED1Ev, symObjAddr: 0x17D8, symBinAddr: 0x100001F78, symSize: 0x20 }
  - { offset: 0x38DD1, size: 0x8, addend: 0x0, symName: __ZNSt12_Vector_baseIdSaIdEE11_M_allocateEm, symObjAddr: 0x1714, symBinAddr: 0x100001EB4, symSize: 0xC4 }
  - { offset: 0x38E91, size: 0x8, addend: 0x0, symName: __ZNSt6vectorIdSaIdEE11_S_max_sizeERKS0_, symObjAddr: 0x16E0, symBinAddr: 0x100001E80, symSize: 0x34 }
  - { offset: 0x38EDD, size: 0x8, addend: 0x0, symName: __ZNSt6vectorIdSaIdEE17_S_check_init_lenEmRKS0_, symObjAddr: 0x166C, symBinAddr: 0x100001E0C, symSize: 0x74 }
  - { offset: 0x38F93, size: 0x8, addend: 0x0, symName: __ZNSt12_Vector_baseIdSaIdEE19_M_get_Tp_allocatorEv, symObjAddr: 0x1658, symBinAddr: 0x100001DF8, symSize: 0x14 }
  - { offset: 0x38FBD, size: 0x8, addend: 0x0, symName: __ZNSt6vectorIdSaIdEE21_M_range_initialize_nIPKdS4_EEvT_T0_m, symObjAddr: 0x15A8, symBinAddr: 0x100001D48, symSize: 0xB0 }
  - { offset: 0x3905E, size: 0x8, addend: 0x0, symName: __ZNKSt16initializer_listIdE4sizeEv, symObjAddr: 0x1590, symBinAddr: 0x100001D30, symSize: 0x18 }
  - { offset: 0x39088, size: 0x8, addend: 0x0, symName: __ZNKSt16initializer_listIdE3endEv, symObjAddr: 0x1558, symBinAddr: 0x100001CF8, symSize: 0x38 }
  - { offset: 0x390B2, size: 0x8, addend: 0x0, symName: __ZNKSt16initializer_listIdE5beginEv, symObjAddr: 0x1540, symBinAddr: 0x100001CE0, symSize: 0x18 }
  - { offset: 0x390F6, size: 0x8, addend: 0x0, symName: __ZNSt12_Vector_baseIdSaIdEE17_Vector_impl_dataC2Ev, symObjAddr: 0x1514, symBinAddr: 0x100001CB4, symSize: 0x2C }
  - { offset: 0x39181, size: 0x8, addend: 0x0, symName: __ZNSt12_Vector_baseIdSaIdEE12_Vector_implC1ERKS0_, symObjAddr: 0x14C8, symBinAddr: 0x100001C68, symSize: 0x4C }
  - { offset: 0x39230, size: 0x8, addend: 0x0, symName: __ZNSt12_Vector_baseIdSaIdEEC2ERKS0_, symObjAddr: 0x14A0, symBinAddr: 0x100001C40, symSize: 0x28 }
  - { offset: 0x3927C, size: 0x8, addend: 0x0, symName: __ZNSt12_Vector_baseIdSaIdEE12_Vector_implD1Ev, symObjAddr: 0x1480, symBinAddr: 0x100001C20, symSize: 0x20 }
  - { offset: 0x392FB, size: 0x8, addend: 0x0, symName: __ZNSt6vectorIdSaIdEEC1ESt16initializer_listIdERKS0_, symObjAddr: 0x1404, symBinAddr: 0x100001BA4, symSize: 0x7C }
  - { offset: 0x3935B, size: 0x8, addend: 0x0, symName: __ZSt7vformatB5cxx11St17basic_string_viewIcSt11char_traitsIcEESt17basic_format_argsISt20basic_format_contextINSt8__format10_Sink_iterIcEEcEE, symObjAddr: 0x12AC, symBinAddr: 0x100001A4C, symSize: 0x158 }
  - { offset: 0x3954C, size: 0x8, addend: 0x0, symName: __ZNSt8__format9_Seq_sinkINSt7__cxx1112basic_stringIcSt11char_traitsIcESaIcEEEED1Ev, symObjAddr: 0x1274, symBinAddr: 0x100001A14, symSize: 0x38 }
  - { offset: 0x39572, size: 0x8, addend: 0x0, symName: __ZNSt8__format16_Optional_locale5valueEv, symObjAddr: 0x122C, symBinAddr: 0x1000019CC, symSize: 0x48 }
  - { offset: 0x395B6, size: 0x8, addend: 0x0, symName: __ZNSt8__format16_Optional_localeD1Ev, symObjAddr: 0x11F8, symBinAddr: 0x100001998, symSize: 0x34 }
  - { offset: 0x39604, size: 0x8, addend: 0x0, symName: __ZNSt8__format16_Optional_localeC1ERKSt6locale, symObjAddr: 0x11C4, symBinAddr: 0x100001964, symSize: 0x34 }
  - { offset: 0x39649, size: 0x8, addend: 0x0, symName: __ZNKSt17basic_string_viewIcSt11char_traitsIcEE4sizeEv, symObjAddr: 0x11AC, symBinAddr: 0x10000194C, symSize: 0x18 }
  - { offset: 0x3966F, size: 0x8, addend: 0x0, symName: __ZNSt8__format23__should_escape_unicodeEDib, symObjAddr: 0x1134, symBinAddr: 0x1000018D4, symSize: 0x78 }
  - { offset: 0x396AA, size: 0x8, addend: 0x0, symName: __ZNSt8__format11__is_xdigitEc, symObjAddr: 0x110C, symBinAddr: 0x1000018AC, symSize: 0x28 }
  - { offset: 0x396D4, size: 0x8, addend: 0x0, symName: __ZNSt8__format10__is_digitEc, symObjAddr: 0x10E4, symBinAddr: 0x100001884, symSize: 0x28 }
  - { offset: 0x396FE, size: 0x8, addend: 0x0, symName: __ZNSt8__format29__failed_to_parse_format_specEv, symObjAddr: 0x10D0, symBinAddr: 0x100001870, symSize: 0x14 }
  - { offset: 0x39716, size: 0x8, addend: 0x0, symName: __ZNSt8__format33__invalid_arg_id_in_format_stringEv, symObjAddr: 0x10BC, symBinAddr: 0x10000185C, symSize: 0x14 }
  - { offset: 0x3972E, size: 0x8, addend: 0x0, symName: __ZNSt8__format39__conflicting_indexing_in_format_stringEv, symObjAddr: 0x10A8, symBinAddr: 0x100001848, symSize: 0x14 }
  - { offset: 0x39746, size: 0x8, addend: 0x0, symName: __ZNSt8__format40__unmatched_right_brace_in_format_stringEv, symObjAddr: 0x1094, symBinAddr: 0x100001834, symSize: 0x14 }
  - { offset: 0x3975E, size: 0x8, addend: 0x0, symName: __ZNSt8__format39__unmatched_left_brace_in_format_stringEv, symObjAddr: 0x1080, symBinAddr: 0x100001820, symSize: 0x14 }
  - { offset: 0x39776, size: 0x8, addend: 0x0, symName: __ZSt20__throw_format_errorPKc, symObjAddr: 0x102C, symBinAddr: 0x1000017CC, symSize: 0x54 }
  - { offset: 0x397C0, size: 0x8, addend: 0x0, symName: __ZNSt12format_errorD0Ev, symObjAddr: 0x1004, symBinAddr: 0x1000017A4, symSize: 0x28 }
  - { offset: 0x397EA, size: 0x8, addend: 0x0, symName: __ZNSt12format_errorD1Ev, symObjAddr: 0xFD0, symBinAddr: 0x100001770, symSize: 0x34 }
  - { offset: 0x39837, size: 0x8, addend: 0x0, symName: __ZNSt12format_errorC1EPKc, symObjAddr: 0xF94, symBinAddr: 0x100001734, symSize: 0x3C }
  - { offset: 0x39862, size: 0x8, addend: 0x0, symName: __ZNSt8__detail25__from_chars_alnum_to_valILb0EEEhh, symObjAddr: 0xF70, symBinAddr: 0x100001710, symSize: 0x24 }
  - { offset: 0x3989A, size: 0x8, addend: 0x0, symName: __ZNSt9__unicode9__v16_0_031_Grapheme_cluster_iterator_base20_M_update_incb_stateEDiNS0_13_Gcb_propertyE, symObjAddr: 0xF30, symBinAddr: 0x1000016D0, symSize: 0x40 }
  - { offset: 0x398DE, size: 0x8, addend: 0x0, symName: __ZNSt9__unicode9__v16_0_031_Grapheme_cluster_iterator_base18_M_update_ri_countENS0_13_Gcb_propertyE, symObjAddr: 0xEE8, symBinAddr: 0x100001688, symSize: 0x48 }
  - { offset: 0x39919, size: 0x8, addend: 0x0, symName: __ZNSt9__unicode9__v16_0_031_Grapheme_cluster_iterator_base26_M_update_xpicto_seq_stateEDiNS0_13_Gcb_propertyE, symObjAddr: 0xDE8, symBinAddr: 0x100001588, symSize: 0x100 }
  - { offset: 0x39976, size: 0x8, addend: 0x0, symName: __ZNSt9__unicode9__v16_0_031_Grapheme_cluster_iterator_base8_M_resetEDiNS0_13_Gcb_propertyE, symObjAddr: 0xD9C, symBinAddr: 0x10000153C, symSize: 0x4C }
  - { offset: 0x399BE, size: 0x8, addend: 0x0, symName: __ZNSt9__unicode9__v16_0_026__is_extended_pictographicEDi, symObjAddr: 0xD28, symBinAddr: 0x1000014C8, symSize: 0x74 }
  - { offset: 0x39A1A, size: 0x8, addend: 0x0, symName: __ZNSt9__unicode9__v16_0_015__incb_propertyEDi, symObjAddr: 0xCA4, symBinAddr: 0x100001444, symSize: 0x84 }
  - { offset: 0x39A98, size: 0x8, addend: 0x0, symName: __ZNSt9__unicode9__v16_0_016__is_incb_linkerEDi, symObjAddr: 0xC54, symBinAddr: 0x1000013F4, symSize: 0x50 }
  - { offset: 0x39AF4, size: 0x8, addend: 0x0, symName: __ZNSt9__unicode9__v16_0_033__grapheme_cluster_break_propertyEDi, symObjAddr: 0xBE8, symBinAddr: 0x100001388, symSize: 0x6C }
  - { offset: 0x39B72, size: 0x8, addend: 0x0, symName: __ZNSt9__unicode9__v16_0_024__should_escape_categoryEDi, symObjAddr: 0xB74, symBinAddr: 0x100001314, symSize: 0x74 }
  - { offset: 0x39BF0, size: 0x8, addend: 0x0, symName: __ZNSt9__unicode9__v16_0_013__field_widthEDi, symObjAddr: 0xAFC, symBinAddr: 0x10000129C, symSize: 0x78 }
  - { offset: 0x39C50, size: 0x8, addend: 0x0, symName: __ZNKSt9__unicode5_ReplclEv, symObjAddr: 0xAE8, symBinAddr: 0x100001288, symSize: 0x14 }
  - { offset: 0x39C76, size: 0x8, addend: 0x0, symName: __ZNSt9__unicode17__is_scalar_valueEDi, symObjAddr: 0xA90, symBinAddr: 0x100001230, symSize: 0x58 }
  - { offset: 0x39CDC, size: 0x8, addend: 0x0, symName: __ZNKSt7__cxx1112basic_stringIcSt11char_traitsIcESaIcEE4sizeEv, symObjAddr: 0xA40, symBinAddr: 0x1000011E0, symSize: 0x50 }
  - { offset: 0x39D13, size: 0x8, addend: 0x0, symName: __ZSt11__bit_widthIjEiT_, symObjAddr: 0xA10, symBinAddr: 0x1000011B0, symSize: 0x30 }
  - { offset: 0x39D57, size: 0x8, addend: 0x0, symName: __ZSt8to_charsPcS_mi, symObjAddr: 0x9DC, symBinAddr: 0x10000117C, symSize: 0x34 }
  - { offset: 0x39DB4, size: 0x8, addend: 0x0, symName: __ZSt3minImERKT_S2_S2_, symObjAddr: 0x9A4, symBinAddr: 0x100001144, symSize: 0x38 }
  - { offset: 0x39DFA, size: 0x8, addend: 0x0, symName: __ZNSt8__detail20_Prime_rehash_policy8_M_resetEm, symObjAddr: 0x980, symBinAddr: 0x100001120, symSize: 0x24 }
  - { offset: 0x39E35, size: 0x8, addend: 0x0, symName: __ZNKSt8__detail20_Prime_rehash_policy8_M_stateEv, symObjAddr: 0x968, symBinAddr: 0x100001108, symSize: 0x18 }
  - { offset: 0x39E87, size: 0x8, addend: 0x0, symName: __ZNSt8__detail20_Prime_rehash_policyC1Ef, symObjAddr: 0x93C, symBinAddr: 0x1000010DC, symSize: 0x2C }
  - { offset: 0x39EB6, size: 0x8, addend: 0x0, symName: __ZNKSt8__detail18_Mod_range_hashingclEmm, symObjAddr: 0x90C, symBinAddr: 0x1000010AC, symSize: 0x30 }
  - { offset: 0x39F1C, size: 0x8, addend: 0x0, symName: __ZNSt8__detail15_Hash_node_baseC1Ev, symObjAddr: 0x8F0, symBinAddr: 0x100001090, symSize: 0x1C }
  - { offset: 0x39F46, size: 0x8, addend: 0x0, symName: __ZNSt8__detail15_Hash_node_baseC2Ev, symObjAddr: 0x8D4, symBinAddr: 0x100001074, symSize: 0x1C }
  - { offset: 0x39F68, size: 0x8, addend: 0x0, symName: __ZNSt8__detail14__to_chars_lenIyEEjT_i, symObjAddr: 0x7F8, symBinAddr: 0x100000F98, symSize: 0xDC }
  - { offset: 0x39FEA, size: 0x8, addend: 0x0, symName: __ZNSt8__detail14__to_chars_lenImEEjT_i, symObjAddr: 0x71C, symBinAddr: 0x100000EBC, symSize: 0xDC }
  - { offset: 0x3A06C, size: 0x8, addend: 0x0, symName: __ZNSt8__detail14__to_chars_lenIjEEjT_i, symObjAddr: 0x644, symBinAddr: 0x100000DE4, symSize: 0xD8 }
  - { offset: 0x3A1C5, size: 0x8, addend: 0x0, symName: __ZNSt7__cxx1112basic_stringIcSt11char_traitsIcESaIcEE12_Alloc_hiderC1EPcOS3_, symObjAddr: 0x5EC, symBinAddr: 0x100000D8C, symSize: 0x58 }
  - { offset: 0x3A2DD, size: 0x8, addend: 0x0, symName: __ZNSt19__ptr_traits_ptr_toIPccLb0EE10pointer_toERc, symObjAddr: 0x5C4, symBinAddr: 0x100000D64, symSize: 0x28 }
  - { offset: 0x3A350, size: 0x8, addend: 0x0, symName: __ZNSt7__cxx1112basic_stringIcSt11char_traitsIcESaIcEE13_M_local_dataEv, symObjAddr: 0x5A4, symBinAddr: 0x100000D44, symSize: 0x20 }
  - { offset: 0x3A394, size: 0x8, addend: 0x0, symName: __ZNSt7__cxx1112basic_stringIcSt11char_traitsIcESaIcEEC1EvQ26is_default_constructible_vIT1_E, symObjAddr: 0x4F8, symBinAddr: 0x100000C98, symSize: 0xAC }
  - { offset: 0x3A480, size: 0x8, addend: 0x0, symName: __ZNSt7__cxx1112basic_stringIcSt11char_traitsIcESaIcEE12_Alloc_hiderD1Ev, symObjAddr: 0x4D8, symBinAddr: 0x100000C78, symSize: 0x20 }
  - { offset: 0x3A4C5, size: 0x8, addend: 0x0, symName: __ZSt10__sv_checkmmPKc, symObjAddr: 0x47C, symBinAddr: 0x100000C1C, symSize: 0x5C }
  - { offset: 0x3A50E, size: 0x8, addend: 0x0, symName: __ZNSt10_Hash_impl4hashEPKvmm, symObjAddr: 0x450, symBinAddr: 0x100000BF0, symSize: 0x2C }
  - { offset: 0x3A557, size: 0x8, addend: 0x0, symName: __ZN9__gnu_cxx5__ops15__val_less_iterEv, symObjAddr: 0x448, symBinAddr: 0x100000BE8, symSize: 0x8 }
  - { offset: 0x3A56F, size: 0x8, addend: 0x0, symName: __ZN9__gnu_cxx5__ops15__iter_less_valEv, symObjAddr: 0x440, symBinAddr: 0x100000BE0, symSize: 0x8 }
  - { offset: 0x3A587, size: 0x8, addend: 0x0, symName: __ZNSt11char_traitsIcE6assignEPcmc, symObjAddr: 0x3CC, symBinAddr: 0x100000B6C, symSize: 0x74 }
  - { offset: 0x3A5ED, size: 0x8, addend: 0x0, symName: __ZNSt11char_traitsIcE4copyEPcPKcm, symObjAddr: 0x354, symBinAddr: 0x100000AF4, symSize: 0x78 }
  - { offset: 0x3A653, size: 0x8, addend: 0x0, symName: __ZNSt11char_traitsIcE4moveEPcPKcm, symObjAddr: 0x2EC, symBinAddr: 0x100000A8C, symSize: 0x68 }
  - { offset: 0x3A6B9, size: 0x8, addend: 0x0, symName: __ZNSt11char_traitsIcE4findEPKcmRS1_, symObjAddr: 0x27C, symBinAddr: 0x100000A1C, symSize: 0x70 }
  - { offset: 0x3A71F, size: 0x8, addend: 0x0, symName: __ZNSt11char_traitsIcE6lengthEPKc, symObjAddr: 0x240, symBinAddr: 0x1000009E0, symSize: 0x3C }
  - { offset: 0x3A763, size: 0x8, addend: 0x0, symName: __ZNSt11char_traitsIcE7compareEPKcS2_m, symObjAddr: 0x150, symBinAddr: 0x1000008F0, symSize: 0xF0 }
  - { offset: 0x3A7ED, size: 0x8, addend: 0x0, symName: __ZNSt11char_traitsIcE2ltERKcS2_, symObjAddr: 0x118, symBinAddr: 0x1000008B8, symSize: 0x38 }
  - { offset: 0x3A828, size: 0x8, addend: 0x0, symName: __ZNSt11char_traitsIcE2eqERKcS2_, symObjAddr: 0xE8, symBinAddr: 0x100000888, symSize: 0x30 }
  - { offset: 0x3A863, size: 0x8, addend: 0x0, symName: __ZNSt11char_traitsIcE6assignERcRKc, symObjAddr: 0x9C, symBinAddr: 0x10000083C, symSize: 0x4C }
  - { offset: 0x3A8B8, size: 0x8, addend: 0x0, symName: __ZStltSt15strong_orderingNSt9__cmp_cat8__unspecE, symObjAddr: 0x78, symBinAddr: 0x100000818, symSize: 0x24 }
  - { offset: 0x3A8EB, size: 0x8, addend: 0x0, symName: __ZSteqSt15strong_orderingNSt9__cmp_cat8__unspecE, symObjAddr: 0x54, symBinAddr: 0x1000007F4, symSize: 0x24 }
  - { offset: 0x3A91E, size: 0x8, addend: 0x0, symName: __ZSt21is_constant_evaluatedv, symObjAddr: 0x4C, symBinAddr: 0x1000007EC, symSize: 0x8 }
  - { offset: 0x3A93D, size: 0x8, addend: 0x0, symName: __ZdlPvS_, symObjAddr: 0x34, symBinAddr: 0x1000007D4, symSize: 0x18 }
  - { offset: 0x3A973, size: 0x8, addend: 0x0, symName: __ZnwmPv, symObjAddr: 0x1C, symBinAddr: 0x1000007BC, symSize: 0x18 }
  - { offset: 0x3A9C1, size: 0x8, addend: 0x0, symName: ___udivti3, symObjAddr: 0x0, symBinAddr: 0x100018B00, symSize: 0x344 }
  - { offset: 0x3AB27, size: 0x8, addend: 0x0, symName: ___udivti3, symObjAddr: 0x0, symBinAddr: 0x100018B00, symSize: 0x344 }
  - { offset: 0x3AB63, size: 0x8, addend: 0x0, symName: ___udivti3, symObjAddr: 0x0, symBinAddr: 0x100018B00, symSize: 0x344 }
  - { offset: 0x3B12A, size: 0x8, addend: 0x0, symName: ___umodti3, symObjAddr: 0x0, symBinAddr: 0x100018E60, symSize: 0x33C }
  - { offset: 0x3B290, size: 0x8, addend: 0x0, symName: ___umodti3, symObjAddr: 0x0, symBinAddr: 0x100018E60, symSize: 0x33C }
  - { offset: 0x3B2DA, size: 0x8, addend: 0x0, symName: ___umodti3, symObjAddr: 0x0, symBinAddr: 0x100018E60, symSize: 0x33C }
...
